Product: MDK-ARM Professional 5.10
Component: ARM Compiler 5.04 update 1 (build 49)
Tool: armlink [5040049]

==============================================================================

Section Cross References

    startup_stm32f4xx.o(RESET) refers to startup_stm32f4xx.o(STACK) for __initial_sp
    startup_stm32f4xx.o(RESET) refers to startup_stm32f4xx.o(.text) for Reset_Handler
    startup_stm32f4xx.o(RESET) refers to stm32f4xx_it.o(i.NMI_Handler) for NMI_Handler
    startup_stm32f4xx.o(RESET) refers to stm32f4xx_it.o(i.HardFault_Handler) for HardFault_Handler
    startup_stm32f4xx.o(RESET) refers to stm32f4xx_it.o(i.MemManage_Handler) for MemManage_Handler
    startup_stm32f4xx.o(RESET) refers to stm32f4xx_it.o(i.BusFault_Handler) for BusFault_Handler
    startup_stm32f4xx.o(RESET) refers to stm32f4xx_it.o(i.UsageFault_Handler) for UsageFault_Handler
    startup_stm32f4xx.o(RESET) refers to stm32f4xx_it.o(i.SVC_Handler) for SVC_Handler
    startup_stm32f4xx.o(RESET) refers to stm32f4xx_it.o(i.DebugMon_Handler) for DebugMon_Handler
    startup_stm32f4xx.o(RESET) refers to os_cpu_a.o(.text) for PendSV_Handler
    startup_stm32f4xx.o(RESET) refers to delay.o(i.SysTick_Handler) for SysTick_Handler
    startup_stm32f4xx.o(RESET) refers to stm32f4xx_it.o(i.EXTI0_IRQHandler) for EXTI0_IRQHandler
    startup_stm32f4xx.o(RESET) refers to stm32f4xx_it.o(i.EXTI1_IRQHandler) for EXTI1_IRQHandler
    startup_stm32f4xx.o(RESET) refers to codec.o(i.DMA1_Stream0_IRQHandler) for DMA1_Stream0_IRQHandler
    startup_stm32f4xx.o(RESET) refers to stm32f4xx_it.o(i.TIM2_IRQHandler) for TIM2_IRQHandler
    startup_stm32f4xx.o(RESET) refers to stm32f4xx_it.o(i.TIM4_IRQHandler) for TIM4_IRQHandler
    startup_stm32f4xx.o(RESET) refers to usart.o(i.USART3_IRQHandler) for USART3_IRQHandler
    startup_stm32f4xx.o(RESET) refers to codec.o(i.DMA1_Stream7_IRQHandler) for DMA1_Stream7_IRQHandler
    startup_stm32f4xx.o(RESET) refers to codec.o(i.SPI3_IRQHandler) for SPI3_IRQHandler
    startup_stm32f4xx.o(RESET) refers to stm32f4xx_it.o(i.OTG_FS_IRQHandler) for OTG_FS_IRQHandler
    startup_stm32f4xx.o(.text) refers to system_stm32f4xx.o(i.SystemInit) for SystemInit
    startup_stm32f4xx.o(.text) refers to entry.o(.ARM.Collect$$$$00000000) for __main
    main.o(i.display_files_list) refers to malloc.o(i.malloc) for malloc
    main.o(i.display_files_list) refers to ff.o(i.f_opendir) for f_opendir
    main.o(i.display_files_list) refers to ff.o(i.f_readdir) for f_readdir
    main.o(i.display_files_list) refers to strstr.o(.text) for strstr
    main.o(i.display_files_list) refers to ff.o(i.dir_seek) for dir_seek
    main.o(i.display_files_list) refers to mp3play.o(i.get_file_curindex) for get_file_curindex
    main.o(i.display_files_list) refers to lcd.o(i.Show_Str) for Show_Str
    main.o(i.display_files_list) refers to lcd.o(i.LCD_ShowString) for LCD_ShowString
    main.o(i.display_files_list) refers to main.o(i.display_scrollbar) for display_scrollbar
    main.o(i.display_files_list) refers to main.o(i.list_ctrl) for list_ctrl
    main.o(i.display_files_list) refers to malloc.o(i.free) for free
    main.o(i.display_files_list) refers to exfuns.o(.bss) for dir
    main.o(i.display_files_list) refers to main.o(.data) for music_status
    main.o(i.display_scrollbar) refers to lcd.o(i.LCD_Fill) for LCD_Fill
    main.o(i.display_scrollbar) refers to lcd.o(i.LCD_DrawFillRectangle) for LCD_DrawFillRectangle
    main.o(i.display_time) refers to lcd.o(i.LCD_Fill) for LCD_Fill
    main.o(i.display_time) refers to lcd.o(i.LCD_ShowNum) for LCD_ShowNum
    main.o(i.display_time) refers to lcd.o(i.LCD_ShowString) for LCD_ShowString
    main.o(i.display_time) refers to main.o(.data) for cur_sec
    main.o(i.display_ui_end) refers to lcd.o(i.LCD_Clear) for LCD_Clear
    main.o(i.display_ui_end) refers to lcd.o(i.DrawPage) for DrawPage
    main.o(i.display_ui_end) refers to lcd.o(i.LCD_DrawRectangle) for LCD_DrawRectangle
    main.o(i.display_ui_end) refers to lcd.o(i.Show_Str) for Show_Str
    main.o(i.display_ui_start) refers to lcd.o(i.DrawPage) for DrawPage
    main.o(i.display_ui_start) refers to lcd.o(i.LCD_DrawRectangle) for LCD_DrawRectangle
    main.o(i.display_ui_start) refers to lcd.o(i.LCD_DrawLine) for LCD_DrawLine
    main.o(i.display_ui_start) refers to lcd.o(i.LCD_ShowString) for LCD_ShowString
    main.o(i.display_ui_start) refers to lcd.o(i.Gui_icon) for Gui_icon
    main.o(i.display_ui_start) refers to lcd.o(.data) for POINT_COLOR
    main.o(i.display_ui_start) refers to main.o(.constdata) for gImage_last
    main.o(i.led_task) refers to delay.o(i.delay_ms) for delay_ms
    main.o(i.led_task) refers to lcd.o(i.LCD_ShowNum) for LCD_ShowNum
    main.o(i.led_task) refers to main.o(i.display_time) for display_time
    main.o(i.led_task) refers to os_core.o(.data) for OSCPUUsage
    main.o(i.led_task) refers to main.o(.data) for music_status
    main.o(i.list_ctrl) refers to delay.o(i.delay_ms) for delay_ms
    main.o(i.list_ctrl) refers to key.o(i.KEY_Scan) for KEY_Scan
    main.o(i.list_ctrl) refers to lcd.o(i.LCD_Fill) for LCD_Fill
    main.o(i.list_ctrl) refers to lcd.o(i.Gui_icon) for Gui_icon
    main.o(i.list_ctrl) refers to mp3play.o(i.Mp3PlayerPauseResume) for Mp3PlayerPauseResume
    main.o(i.list_ctrl) refers to mp3play.o(i.Mp3PlayerStop) for Mp3PlayerStop
    main.o(i.list_ctrl) refers to main.o(.data) for pause
    main.o(i.list_ctrl) refers to main.o(.constdata) for gImage_pause
    main.o(i.main) refers to misc.o(i.NVIC_PriorityGroupConfig) for NVIC_PriorityGroupConfig
    main.o(i.main) refers to delay.o(i.delay_init) for delay_init
    main.o(i.main) refers to usart.o(i.uart_init) for uart_init
    main.o(i.main) refers to key.o(i.KEY_Init) for KEY_Init
    main.o(i.main) refers to led.o(i.LED_Init) for LED_Init
    main.o(i.main) refers to lcd.o(i.LCD_Init) for LCD_Init
    main.o(i.main) refers to lcd.o(i.LCD_Clear) for LCD_Clear
    main.o(i.main) refers to lcd.o(i.Show_Str) for Show_Str
    main.o(i.main) refers to lcd.o(i.LCD_ShowString) for LCD_ShowString
    main.o(i.main) refers to delay.o(i.delay_ms) for delay_ms
    main.o(i.main) refers to key.o(i.KEY_Scan) for KEY_Scan
    main.o(i.main) refers to os_core.o(i.OSInit) for OSInit
    main.o(i.main) refers to os_task.o(i.OSTaskCreate) for OSTaskCreate
    main.o(i.main) refers to os_core.o(i.OSStart) for OSStart
    main.o(i.main) refers to system_stm32f4xx.o(.data) for SystemCoreClock
    main.o(i.main) refers to main.o(.bss) for START_TASK_STK
    main.o(i.main) refers to main.o(i.start_task) for start_task
    main.o(i.reset_time) refers to lcd.o(i.LCD_Fill) for LCD_Fill
    main.o(i.reset_time) refers to lcd.o(i.LCD_ShowNum) for LCD_ShowNum
    main.o(i.reset_time) refers to main.o(.data) for cur_min
    main.o(i.start_task) refers to os_core.o(i.OSStatInit) for OSStatInit
    main.o(i.start_task) refers to os_cpu_a.o(.text) for OS_CPU_SR_Save
    main.o(i.start_task) refers to os_task.o(i.OSTaskCreate) for OSTaskCreate
    main.o(i.start_task) refers to os_task.o(i.OSTaskSuspend) for OSTaskSuspend
    main.o(i.start_task) refers to os_task.o(i.OSTaskDel) for OSTaskDel
    main.o(i.start_task) refers to main.o(.bss) for LED_TASK_STK
    main.o(i.start_task) refers to main.o(i.led_task) for led_task
    main.o(i.start_task) refers to main.o(i.ui_task) for ui_task
    main.o(i.start_task) refers to main.o(i.usb_task) for usb_task
    main.o(i.start_task) refers to main.o(i.tf_task) for tf_task
    main.o(i.test_task) refers to key.o(i.KEY_Scan) for KEY_Scan
    main.o(i.test_task) refers to delay.o(i.delay_ms) for delay_ms
    main.o(i.test_task) refers to producttest.o(i.ProductTest_main) for ProductTest_main
    main.o(i.tf_task) refers to os_task.o(i.OSTaskDel) for OSTaskDel
    main.o(i.tf_task) refers to delay.o(i.delay_ms) for delay_ms
    main.o(i.tf_task) refers to sd.o(i.SD_Initialize) for SD_Initialize
    main.o(i.tf_task) refers to ff.o(i.f_mount) for f_mount
    main.o(i.tf_task) refers to sd.o(i.get_TF_free) for get_TF_free
    main.o(i.tf_task) refers to mp3play.o(i.Mp3PlayerStart) for Mp3PlayerStart
    main.o(i.tf_task) refers to main.o(.data) for mount_flage
    main.o(i.tf_task) refers to main.o(.bss) for my_fs
    main.o(i.ui_task) refers to main.o(i.display_ui_start) for display_ui_start
    main.o(i.ui_task) refers to delay.o(i.delay_ms) for delay_ms
    main.o(i.ui_task) refers to main.o(i.display_files_list) for display_files_list
    main.o(i.ui_task) refers to os_task.o(i.OSTaskDel) for OSTaskDel
    main.o(i.ui_task) refers to lcd.o(i.LCD_Fill) for LCD_Fill
    main.o(i.ui_task) refers to lcd.o(i.Show_Str) for Show_Str
    main.o(i.ui_task) refers to main.o(i.display_ui_end) for display_ui_end
    main.o(i.ui_task) refers to os_task.o(i.OSTaskCreate) for OSTaskCreate
    main.o(i.ui_task) refers to main.o(.data) for mount_flage
    main.o(i.ui_task) refers to main.o(.bss) for TEST_TASK_STK
    main.o(i.ui_task) refers to main.o(i.test_task) for test_task
    main.o(i.usb_task) refers to usbh_core.o(i.USBH_Init) for USBH_Init
    main.o(i.usb_task) refers to usbh_core.o(i.USBH_Process) for USBH_Process
    main.o(i.usb_task) refers to main.o(.data) for RepeatState
    main.o(i.usb_task) refers to usbh_usr.o(.data) for USR_Callbacks
    main.o(i.usb_task) refers to usbh_msc_core.o(.data) for USBH_MSC_cb
    main.o(i.usb_task) refers to main.o(.bss) for USB_Host
    stm32f4xx_it.o(i.EXTI0_IRQHandler) refers to stm32f4xx_exti.o(i.EXTI_GetITStatus) for EXTI_GetITStatus
    stm32f4xx_it.o(i.EXTI0_IRQHandler) refers to codec.o(i.EVAL_AUDIO_Stop) for EVAL_AUDIO_Stop
    stm32f4xx_it.o(i.EXTI0_IRQHandler) refers to stm32f4xx_exti.o(i.EXTI_ClearITPendingBit) for EXTI_ClearITPendingBit
    stm32f4xx_it.o(i.EXTI0_IRQHandler) refers to usbh_usr.o(.data) for Command_index
    stm32f4xx_it.o(i.EXTI0_IRQHandler) refers to main.o(.data) for RepeatState
    stm32f4xx_it.o(i.EXTI0_IRQHandler) refers to mp3play.o(.data) for XferCplt
    stm32f4xx_it.o(i.OTG_FS_IRQHandler) refers to usb_hcd_int.o(i.USBH_OTG_ISR_Handler) for USBH_OTG_ISR_Handler
    stm32f4xx_it.o(i.OTG_FS_IRQHandler) refers to main.o(.bss) for USB_OTG_Core
    stm32f4xx_it.o(i.TIM2_IRQHandler) refers to usb_bsp.o(i.USB_OTG_BSP_TimerIRQ) for USB_OTG_BSP_TimerIRQ
    stm32f4xx_it.o(i.TIM4_IRQHandler) refers to stm32f4xx_tim.o(i.TIM_GetITStatus) for TIM_GetITStatus
    stm32f4xx_it.o(i.TIM4_IRQHandler) refers to stm32f4xx_tim.o(i.TIM_ClearITPendingBit) for TIM_ClearITPendingBit
    stm32f4xx_it.o(i.TIM4_IRQHandler) refers to stm32f4xx_tim.o(i.TIM_GetCapture1) for TIM_GetCapture1
    stm32f4xx_it.o(i.TIM4_IRQHandler) refers to stm32f4xx_tim.o(i.TIM_SetCompare1) for TIM_SetCompare1
    stm32f4xx_it.o(i.TIM4_IRQHandler) refers to stm32f4xx_it.o(.data) for capture
    system_stm32f4xx.o(i.SystemCoreClockUpdate) refers to system_stm32f4xx.o(.data) for SystemCoreClock
    system_stm32f4xx.o(i.SystemInit) refers to system_stm32f4xx.o(i.SetSysClock) for SetSysClock
    usb_bsp.o(i.BSP_Delay) refers to usb_bsp.o(i.BSP_SetTime) for BSP_SetTime
    usb_bsp.o(i.BSP_Delay) refers to stm32f4xx_tim.o(i.TIM_Cmd) for TIM_Cmd
    usb_bsp.o(i.BSP_Delay) refers to usb_bsp.o(.data) for BSP_delay
    usb_bsp.o(i.BSP_SetTime) refers to stm32f4xx_tim.o(i.TIM_Cmd) for TIM_Cmd
    usb_bsp.o(i.BSP_SetTime) refers to stm32f4xx_tim.o(i.TIM_ITConfig) for TIM_ITConfig
    usb_bsp.o(i.BSP_SetTime) refers to stm32f4xx_tim.o(i.TIM_TimeBaseInit) for TIM_TimeBaseInit
    usb_bsp.o(i.BSP_SetTime) refers to stm32f4xx_tim.o(i.TIM_ClearITPendingBit) for TIM_ClearITPendingBit
    usb_bsp.o(i.BSP_SetTime) refers to stm32f4xx_tim.o(i.TIM_ARRPreloadConfig) for TIM_ARRPreloadConfig
    usb_bsp.o(i.USB_OTG_BSP_ConfigVBUS) refers to stm32f4xx_rcc.o(i.RCC_AHB1PeriphClockCmd) for RCC_AHB1PeriphClockCmd
    usb_bsp.o(i.USB_OTG_BSP_ConfigVBUS) refers to stm32f4xx_gpio.o(i.GPIO_Init) for GPIO_Init
    usb_bsp.o(i.USB_OTG_BSP_ConfigVBUS) refers to stm32f4xx_gpio.o(i.GPIO_SetBits) for GPIO_SetBits
    usb_bsp.o(i.USB_OTG_BSP_ConfigVBUS) refers to usb_bsp.o(i.USB_OTG_BSP_mDelay) for USB_OTG_BSP_mDelay
    usb_bsp.o(i.USB_OTG_BSP_DriveVBUS) refers to stm32f4xx_gpio.o(i.GPIO_SetBits) for GPIO_SetBits
    usb_bsp.o(i.USB_OTG_BSP_DriveVBUS) refers to stm32f4xx_gpio.o(i.GPIO_ResetBits) for GPIO_ResetBits
    usb_bsp.o(i.USB_OTG_BSP_EnableInterrupt) refers to misc.o(i.NVIC_PriorityGroupConfig) for NVIC_PriorityGroupConfig
    usb_bsp.o(i.USB_OTG_BSP_EnableInterrupt) refers to misc.o(i.NVIC_Init) for NVIC_Init
    usb_bsp.o(i.USB_OTG_BSP_Init) refers to stm32f4xx_rcc.o(i.RCC_AHB1PeriphClockCmd) for RCC_AHB1PeriphClockCmd
    usb_bsp.o(i.USB_OTG_BSP_Init) refers to stm32f4xx_gpio.o(i.GPIO_Init) for GPIO_Init
    usb_bsp.o(i.USB_OTG_BSP_Init) refers to stm32f4xx_gpio.o(i.GPIO_PinAFConfig) for GPIO_PinAFConfig
    usb_bsp.o(i.USB_OTG_BSP_Init) refers to stm32f4xx_rcc.o(i.RCC_APB2PeriphClockCmd) for RCC_APB2PeriphClockCmd
    usb_bsp.o(i.USB_OTG_BSP_Init) refers to stm32f4xx_rcc.o(i.RCC_AHB2PeriphClockCmd) for RCC_AHB2PeriphClockCmd
    usb_bsp.o(i.USB_OTG_BSP_Init) refers to usb_bsp.o(i.USB_OTG_BSP_TimeInit) for USB_OTG_BSP_TimeInit
    usb_bsp.o(i.USB_OTG_BSP_TimeInit) refers to misc.o(i.NVIC_SetVectorTable) for NVIC_SetVectorTable
    usb_bsp.o(i.USB_OTG_BSP_TimeInit) refers to misc.o(i.NVIC_PriorityGroupConfig) for NVIC_PriorityGroupConfig
    usb_bsp.o(i.USB_OTG_BSP_TimeInit) refers to misc.o(i.NVIC_Init) for NVIC_Init
    usb_bsp.o(i.USB_OTG_BSP_TimeInit) refers to stm32f4xx_rcc.o(i.RCC_APB1PeriphClockCmd) for RCC_APB1PeriphClockCmd
    usb_bsp.o(i.USB_OTG_BSP_TimerIRQ) refers to stm32f4xx_tim.o(i.TIM_GetITStatus) for TIM_GetITStatus
    usb_bsp.o(i.USB_OTG_BSP_TimerIRQ) refers to stm32f4xx_tim.o(i.TIM_ClearITPendingBit) for TIM_ClearITPendingBit
    usb_bsp.o(i.USB_OTG_BSP_TimerIRQ) refers to stm32f4xx_tim.o(i.TIM_Cmd) for TIM_Cmd
    usb_bsp.o(i.USB_OTG_BSP_TimerIRQ) refers to usb_bsp.o(.data) for BSP_delay
    usb_bsp.o(i.USB_OTG_BSP_mDelay) refers to usb_bsp.o(i.BSP_Delay) for BSP_Delay
    usb_bsp.o(i.USB_OTG_BSP_uDelay) refers to usb_bsp.o(i.BSP_Delay) for BSP_Delay
    usbh_usr.o(i.COMMAND_AudioExecuteApplication) refers to sd.o(i.get_USB_free) for get_USB_free
    usbh_usr.o(i.COMMAND_AudioExecuteApplication) refers to mp3play.o(i.Mp3PlayerStart) for Mp3PlayerStart
    usbh_usr.o(i.COMMAND_AudioExecuteApplication) refers to usbh_usr.o(.data) for Command_index
    usbh_usr.o(i.COMMAND_AudioExecuteApplication) refers to main.o(.data) for RepeatState
    usbh_usr.o(i.USBH_USR_DeInit) refers to usbh_usr.o(.data) for USBH_USR_ApplicationState
    usbh_usr.o(i.USBH_USR_DeviceAttached) refers to stm32f4xx_tim.o(i.TIM_ITConfig) for TIM_ITConfig
    usbh_usr.o(i.USBH_USR_DeviceAttached) refers to main.o(.data) for RepeatState
    usbh_usr.o(i.USBH_USR_DeviceAttached) refers to stm32f4xx_it.o(.data) for LED_Toggle
    usbh_usr.o(i.USBH_USR_DeviceDisconnected) refers to stm32f4xx_tim.o(i.TIM_ITConfig) for TIM_ITConfig
    usbh_usr.o(i.USBH_USR_DeviceDisconnected) refers to mp3play.o(i.Mp3Player_CallBack) for Mp3Player_CallBack
    usbh_usr.o(i.USBH_USR_DeviceDisconnected) refers to mp3play.o(.data) for Mp3DataLength
    usbh_usr.o(i.USBH_USR_DeviceDisconnected) refers to usbh_usr.o(.data) for Command_index
    usbh_usr.o(i.USBH_USR_DeviceDisconnected) refers to stm32f4xx_it.o(.data) for Time_Rec_Base
    usbh_usr.o(i.USBH_USR_EnumerationDone) refers to usb_bsp.o(i.USB_OTG_BSP_mDelay) for USB_OTG_BSP_mDelay
    usbh_usr.o(i.USBH_USR_EnumerationDone) refers to usbh_usr.o(i.USBH_USR_MSC_Application) for USBH_USR_MSC_Application
    usbh_usr.o(i.USBH_USR_MSC_Application) refers to ff.o(i.f_mount) for f_mount
    usbh_usr.o(i.USBH_USR_MSC_Application) refers to lcd.o(i.LCD_ShowString) for LCD_ShowString
    usbh_usr.o(i.USBH_USR_MSC_Application) refers to usbh_usr.o(i.COMMAND_AudioExecuteApplication) for COMMAND_AudioExecuteApplication
    usbh_usr.o(i.USBH_USR_MSC_Application) refers to usbh_usr.o(.data) for USBH_USR_ApplicationState
    usbh_usr.o(i.USBH_USR_MSC_Application) refers to usbh_usr.o(.bss) for fatfs
    usbh_usr.o(i.USBH_USR_MSC_Application) refers to usbh_msc_scsi.o(.bss) for USBH_MSC_Param
    usbh_usr.o(.data) refers to usbh_usr.o(i.USBH_USR_Init) for USBH_USR_Init
    usbh_usr.o(.data) refers to usbh_usr.o(i.USBH_USR_DeInit) for USBH_USR_DeInit
    usbh_usr.o(.data) refers to usbh_usr.o(i.USBH_USR_DeviceAttached) for USBH_USR_DeviceAttached
    usbh_usr.o(.data) refers to usbh_usr.o(i.USBH_USR_ResetDevice) for USBH_USR_ResetDevice
    usbh_usr.o(.data) refers to usbh_usr.o(i.USBH_USR_DeviceDisconnected) for USBH_USR_DeviceDisconnected
    usbh_usr.o(.data) refers to usbh_usr.o(i.USBH_USR_OverCurrentDetected) for USBH_USR_OverCurrentDetected
    usbh_usr.o(.data) refers to usbh_usr.o(i.USBH_USR_DeviceSpeedDetected) for USBH_USR_DeviceSpeedDetected
    usbh_usr.o(.data) refers to usbh_usr.o(i.USBH_USR_Device_DescAvailable) for USBH_USR_Device_DescAvailable
    usbh_usr.o(.data) refers to usbh_usr.o(i.USBH_USR_DeviceAddressAssigned) for USBH_USR_DeviceAddressAssigned
    usbh_usr.o(.data) refers to usbh_usr.o(i.USBH_USR_Configuration_DescAvailable) for USBH_USR_Configuration_DescAvailable
    usbh_usr.o(.data) refers to usbh_usr.o(i.USBH_USR_Manufacturer_String) for USBH_USR_Manufacturer_String
    usbh_usr.o(.data) refers to usbh_usr.o(i.USBH_USR_Product_String) for USBH_USR_Product_String
    usbh_usr.o(.data) refers to usbh_usr.o(i.USBH_USR_SerialNum_String) for USBH_USR_SerialNum_String
    usbh_usr.o(.data) refers to usbh_usr.o(i.USBH_USR_EnumerationDone) for USBH_USR_EnumerationDone
    usbh_usr.o(.data) refers to usbh_usr.o(i.USBH_USR_UserInput) for USBH_USR_UserInput
    usbh_usr.o(.data) refers to usbh_usr.o(i.USBH_USR_MSC_Application) for USBH_USR_MSC_Application
    usbh_usr.o(.data) refers to usbh_usr.o(i.USBH_USR_DeviceNotSupported) for USBH_USR_DeviceNotSupported
    usbh_usr.o(.data) refers to usbh_usr.o(i.USBH_USR_UnrecoveredError) for USBH_USR_UnrecoveredError
    producttest.o(i.ProductTest_main) refers to lcd.o(i.DrawPage) for DrawPage
    producttest.o(i.ProductTest_main) refers to lcd.o(i.Show_Str) for Show_Str
    producttest.o(i.ProductTest_main) refers to key.o(i.KEY_Scan) for KEY_Scan
    producttest.o(i.ProductTest_main) refers to delay.o(i.delay_ms) for delay_ms
    producttest.o(i.ProductTest_main) refers to producttest.o(i.key_test) for key_test
    producttest.o(i.ProductTest_main) refers to producttest.o(i.led_test) for led_test
    producttest.o(i.ProductTest_main) refers to producttest.o(i.lcd_test) for lcd_test
    producttest.o(i.ProductTest_main) refers to producttest.o(i.usart_test) for usart_test
    producttest.o(i.ProductTest_main) refers to producttest.o(.data) for key
    producttest.o(i.key_test) refers to lcd.o(i.DrawPage) for DrawPage
    producttest.o(i.key_test) refers to lcd.o(i.gui_circle) for gui_circle
    producttest.o(i.key_test) refers to key.o(i.KEY_Scan) for KEY_Scan
    producttest.o(i.key_test) refers to delay.o(i.delay_ms) for delay_ms
    producttest.o(i.key_test) refers to producttest.o(i.ProductTest_main) for ProductTest_main
    producttest.o(i.key_test) refers to producttest.o(.data) for key
    producttest.o(i.lcd_test) refers to lcd.o(i.DrawPage) for DrawPage
    producttest.o(i.lcd_test) refers to key.o(i.KEY_Scan) for KEY_Scan
    producttest.o(i.lcd_test) refers to delay.o(i.delay_ms) for delay_ms
    producttest.o(i.lcd_test) refers to producttest.o(i.ProductTest_main) for ProductTest_main
    producttest.o(i.lcd_test) refers to lcd.o(i.LCD_Fill) for LCD_Fill
    producttest.o(i.lcd_test) refers to lcd.o(i.LCD_DrawRectangle) for LCD_DrawRectangle
    producttest.o(i.lcd_test) refers to lcd.o(i.LCD_DrawFillRectangle) for LCD_DrawFillRectangle
    producttest.o(i.lcd_test) refers to lcd.o(i.gui_circle) for gui_circle
    producttest.o(i.lcd_test) refers to producttest.o(.constdata) for .constdata
    producttest.o(i.lcd_test) refers to producttest.o(.data) for key
    producttest.o(i.lcd_test) refers to lcd.o(.bss) for lcddev
    producttest.o(i.lcd_test) refers to lcd.o(.data) for POINT_COLOR
    producttest.o(i.led_test) refers to rand.o(.text) for srand
    producttest.o(i.led_test) refers to lcd.o(i.DrawPage) for DrawPage
    producttest.o(i.led_test) refers to lcd.o(i.gui_circle) for gui_circle
    producttest.o(i.led_test) refers to key.o(i.KEY_Scan) for KEY_Scan
    producttest.o(i.led_test) refers to delay.o(i.delay_ms) for delay_ms
    producttest.o(i.led_test) refers to lcd.o(i.LCD_Fill) for LCD_Fill
    producttest.o(i.led_test) refers to stm32f4xx_gpio.o(i.GPIO_ResetBits) for GPIO_ResetBits
    producttest.o(i.led_test) refers to stm32f4xx_gpio.o(i.GPIO_SetBits) for GPIO_SetBits
    producttest.o(i.led_test) refers to producttest.o(i.ProductTest_main) for ProductTest_main
    producttest.o(i.led_test) refers to producttest.o(.data) for key
    producttest.o(i.usart_test) refers to lcd.o(i.DrawPage) for DrawPage
    producttest.o(i.usart_test) refers to lcd.o(i.LCD_ShowString) for LCD_ShowString
    producttest.o(i.usart_test) refers to key.o(i.KEY_Scan) for KEY_Scan
    producttest.o(i.usart_test) refers to delay.o(i.delay_ms) for delay_ms
    producttest.o(i.usart_test) refers to printfb.o(i.__0printf$bare) for __2printf
    producttest.o(i.usart_test) refers to producttest.o(i.ProductTest_main) for ProductTest_main
    producttest.o(i.usart_test) refers to strcmp.o(.text) for strcmp
    producttest.o(i.usart_test) refers to lcd.o(i.LCD_Fill) for LCD_Fill
    producttest.o(i.usart_test) refers to strcpy.o(.text) for strcpy
    producttest.o(i.usart_test) refers to producttest.o(.data) for key
    producttest.o(i.usart_test) refers to usart.o(.bss) for USART_RX_TEMP
    stm32f4xx_dac.o(i.DAC_DeInit) refers to stm32f4xx_rcc.o(i.RCC_APB1PeriphResetCmd) for RCC_APB1PeriphResetCmd
    stm32f4xx_gpio.o(i.GPIO_DeInit) refers to stm32f4xx_rcc.o(i.RCC_AHB1PeriphResetCmd) for RCC_AHB1PeriphResetCmd
    stm32f4xx_i2c.o(i.I2C_DeInit) refers to stm32f4xx_rcc.o(i.RCC_APB1PeriphResetCmd) for RCC_APB1PeriphResetCmd
    stm32f4xx_i2c.o(i.I2C_Init) refers to stm32f4xx_rcc.o(i.RCC_GetClocksFreq) for RCC_GetClocksFreq
    stm32f4xx_rcc.o(i.RCC_GetClocksFreq) refers to stm32f4xx_rcc.o(.data) for APBAHBPrescTable
    stm32f4xx_rcc.o(i.RCC_WaitForHSEStartUp) refers to stm32f4xx_rcc.o(i.RCC_GetFlagStatus) for RCC_GetFlagStatus
    stm32f4xx_spi.o(i.SPI_I2S_DeInit) refers to stm32f4xx_rcc.o(i.RCC_APB2PeriphResetCmd) for RCC_APB2PeriphResetCmd
    stm32f4xx_spi.o(i.SPI_I2S_DeInit) refers to stm32f4xx_rcc.o(i.RCC_APB1PeriphResetCmd) for RCC_APB1PeriphResetCmd
    stm32f4xx_syscfg.o(i.SYSCFG_DeInit) refers to stm32f4xx_rcc.o(i.RCC_APB2PeriphResetCmd) for RCC_APB2PeriphResetCmd
    stm32f4xx_tim.o(i.TIM_DeInit) refers to stm32f4xx_rcc.o(i.RCC_APB2PeriphResetCmd) for RCC_APB2PeriphResetCmd
    stm32f4xx_tim.o(i.TIM_DeInit) refers to stm32f4xx_rcc.o(i.RCC_APB1PeriphResetCmd) for RCC_APB1PeriphResetCmd
    stm32f4xx_tim.o(i.TIM_ETRClockMode1Config) refers to stm32f4xx_tim.o(i.TIM_ETRConfig) for TIM_ETRConfig
    stm32f4xx_tim.o(i.TIM_ETRClockMode2Config) refers to stm32f4xx_tim.o(i.TIM_ETRConfig) for TIM_ETRConfig
    stm32f4xx_tim.o(i.TIM_ICInit) refers to stm32f4xx_tim.o(i.TI1_Config) for TI1_Config
    stm32f4xx_tim.o(i.TIM_ICInit) refers to stm32f4xx_tim.o(i.TIM_SetIC1Prescaler) for TIM_SetIC1Prescaler
    stm32f4xx_tim.o(i.TIM_ICInit) refers to stm32f4xx_tim.o(i.TI2_Config) for TI2_Config
    stm32f4xx_tim.o(i.TIM_ICInit) refers to stm32f4xx_tim.o(i.TIM_SetIC2Prescaler) for TIM_SetIC2Prescaler
    stm32f4xx_tim.o(i.TIM_ICInit) refers to stm32f4xx_tim.o(i.TI3_Config) for TI3_Config
    stm32f4xx_tim.o(i.TIM_ICInit) refers to stm32f4xx_tim.o(i.TIM_SetIC3Prescaler) for TIM_SetIC3Prescaler
    stm32f4xx_tim.o(i.TIM_ICInit) refers to stm32f4xx_tim.o(i.TI4_Config) for TI4_Config
    stm32f4xx_tim.o(i.TIM_ICInit) refers to stm32f4xx_tim.o(i.TIM_SetIC4Prescaler) for TIM_SetIC4Prescaler
    stm32f4xx_tim.o(i.TIM_ITRxExternalClockConfig) refers to stm32f4xx_tim.o(i.TIM_SelectInputTrigger) for TIM_SelectInputTrigger
    stm32f4xx_tim.o(i.TIM_PWMIConfig) refers to stm32f4xx_tim.o(i.TI1_Config) for TI1_Config
    stm32f4xx_tim.o(i.TIM_PWMIConfig) refers to stm32f4xx_tim.o(i.TIM_SetIC1Prescaler) for TIM_SetIC1Prescaler
    stm32f4xx_tim.o(i.TIM_PWMIConfig) refers to stm32f4xx_tim.o(i.TI2_Config) for TI2_Config
    stm32f4xx_tim.o(i.TIM_PWMIConfig) refers to stm32f4xx_tim.o(i.TIM_SetIC2Prescaler) for TIM_SetIC2Prescaler
    stm32f4xx_tim.o(i.TIM_TIxExternalClockConfig) refers to stm32f4xx_tim.o(i.TI2_Config) for TI2_Config
    stm32f4xx_tim.o(i.TIM_TIxExternalClockConfig) refers to stm32f4xx_tim.o(i.TI1_Config) for TI1_Config
    stm32f4xx_tim.o(i.TIM_TIxExternalClockConfig) refers to stm32f4xx_tim.o(i.TIM_SelectInputTrigger) for TIM_SelectInputTrigger
    stm32f4xx_usart.o(i.USART_DeInit) refers to stm32f4xx_rcc.o(i.RCC_APB2PeriphResetCmd) for RCC_APB2PeriphResetCmd
    stm32f4xx_usart.o(i.USART_DeInit) refers to stm32f4xx_rcc.o(i.RCC_APB1PeriphResetCmd) for RCC_APB1PeriphResetCmd
    stm32f4xx_usart.o(i.USART_Init) refers to stm32f4xx_rcc.o(i.RCC_GetClocksFreq) for RCC_GetClocksFreq
    ff.o(i.check_fs) refers to diskio.o(i.disk_read) for disk_read
    ff.o(i.chk_mounted) refers to diskio.o(i.disk_status) for disk_status
    ff.o(i.chk_mounted) refers to diskio.o(i.disk_initialize) for disk_initialize
    ff.o(i.chk_mounted) refers to diskio.o(i.disk_ioctl) for disk_ioctl
    ff.o(i.chk_mounted) refers to ff.o(i.check_fs) for check_fs
    ff.o(i.chk_mounted) refers to diskio.o(i.disk_read) for disk_read
    ff.o(i.chk_mounted) refers to ff.o(.data) for FatFs
    ff.o(i.cmp_lfn) refers to mycc936.o(i.ff_wtoupper) for ff_wtoupper
    ff.o(i.cmp_lfn) refers to ff.o(.constdata) for LfnOfs
    ff.o(i.create_chain) refers to ff.o(i.get_fat) for get_fat
    ff.o(i.create_chain) refers to ff.o(i.put_fat) for put_fat
    ff.o(i.create_name) refers to mycc936.o(i.ff_convert) for ff_convert
    ff.o(i.create_name) refers to ff.o(i.chk_chr) for chk_chr
    ff.o(i.create_name) refers to ff.o(i.mem_set) for mem_set
    ff.o(i.create_name) refers to mycc936.o(i.ff_wtoupper) for ff_wtoupper
    ff.o(i.dir_find) refers to ff.o(i.dir_seek) for dir_seek
    ff.o(i.dir_find) refers to ff.o(i.move_window) for move_window
    ff.o(i.dir_find) refers to ff.o(i.cmp_lfn) for cmp_lfn
    ff.o(i.dir_find) refers to ff.o(i.sum_sfn) for sum_sfn
    ff.o(i.dir_find) refers to ff.o(i.mem_cmp) for mem_cmp
    ff.o(i.dir_find) refers to ff.o(i.dir_next) for dir_next
    ff.o(i.dir_next) refers to ff.o(i.get_fat) for get_fat
    ff.o(i.dir_next) refers to ff.o(i.create_chain) for create_chain
    ff.o(i.dir_next) refers to ff.o(i.move_window) for move_window
    ff.o(i.dir_next) refers to ff.o(i.mem_set) for mem_set
    ff.o(i.dir_next) refers to ff.o(i.clust2sect) for clust2sect
    ff.o(i.dir_read) refers to ff.o(i.move_window) for move_window
    ff.o(i.dir_read) refers to ff.o(i.pick_lfn) for pick_lfn
    ff.o(i.dir_read) refers to ff.o(i.sum_sfn) for sum_sfn
    ff.o(i.dir_read) refers to ff.o(i.dir_next) for dir_next
    ff.o(i.dir_register) refers to ff.o(i.mem_cpy) for mem_cpy
    ff.o(i.dir_register) refers to ff.o(i.gen_numname) for gen_numname
    ff.o(i.dir_register) refers to ff.o(i.dir_find) for dir_find
    ff.o(i.dir_register) refers to ff.o(i.dir_seek) for dir_seek
    ff.o(i.dir_register) refers to ff.o(i.move_window) for move_window
    ff.o(i.dir_register) refers to ff.o(i.dir_next) for dir_next
    ff.o(i.dir_register) refers to ff.o(i.sum_sfn) for sum_sfn
    ff.o(i.dir_register) refers to ff.o(i.fit_lfn) for fit_lfn
    ff.o(i.dir_register) refers to ff.o(i.mem_set) for mem_set
    ff.o(i.dir_remove) refers to ff.o(i.dir_seek) for dir_seek
    ff.o(i.dir_remove) refers to ff.o(i.move_window) for move_window
    ff.o(i.dir_remove) refers to ff.o(i.dir_next) for dir_next
    ff.o(i.dir_seek) refers to ff.o(i.get_fat) for get_fat
    ff.o(i.dir_seek) refers to ff.o(i.clust2sect) for clust2sect
    ff.o(i.f_chmod) refers to ff.o(i.chk_mounted) for chk_mounted
    ff.o(i.f_chmod) refers to ff.o(i.follow_path) for follow_path
    ff.o(i.f_chmod) refers to ff.o(i.sync) for sync
    ff.o(i.f_close) refers to ff.o(i.f_sync) for f_sync
    ff.o(i.f_getfree) refers to ff.o(i.chk_mounted) for chk_mounted
    ff.o(i.f_getfree) refers to ff.o(i.get_fat) for get_fat
    ff.o(i.f_getfree) refers to ff.o(i.move_window) for move_window
    ff.o(i.f_gets) refers to ff.o(i.f_read) for f_read
    ff.o(i.f_lseek) refers to ff.o(i.validate) for validate
    ff.o(i.f_lseek) refers to ff.o(i.create_chain) for create_chain
    ff.o(i.f_lseek) refers to ff.o(i.get_fat) for get_fat
    ff.o(i.f_lseek) refers to ff.o(i.clust2sect) for clust2sect
    ff.o(i.f_lseek) refers to diskio.o(i.disk_write) for disk_write
    ff.o(i.f_lseek) refers to diskio.o(i.disk_read) for disk_read
    ff.o(i.f_mkdir) refers to ff.o(i.chk_mounted) for chk_mounted
    ff.o(i.f_mkdir) refers to ff.o(i.follow_path) for follow_path
    ff.o(i.f_mkdir) refers to ff.o(i.create_chain) for create_chain
    ff.o(i.f_mkdir) refers to ff.o(i.move_window) for move_window
    ff.o(i.f_mkdir) refers to ff.o(i.clust2sect) for clust2sect
    ff.o(i.f_mkdir) refers to ff.o(i.mem_set) for mem_set
    ff.o(i.f_mkdir) refers to fattime.o(i.get_fattime) for get_fattime
    ff.o(i.f_mkdir) refers to ff.o(i.mem_cpy) for mem_cpy
    ff.o(i.f_mkdir) refers to ff.o(i.dir_register) for dir_register
    ff.o(i.f_mkdir) refers to ff.o(i.remove_chain) for remove_chain
    ff.o(i.f_mkdir) refers to ff.o(i.sync) for sync
    ff.o(i.f_mkfs) refers to diskio.o(i.disk_initialize) for disk_initialize
    ff.o(i.f_mkfs) refers to diskio.o(i.disk_ioctl) for disk_ioctl
    ff.o(i.f_mkfs) refers to ff.o(i.mem_set) for mem_set
    ff.o(i.f_mkfs) refers to diskio.o(i.disk_write) for disk_write
    ff.o(i.f_mkfs) refers to fattime.o(i.get_fattime) for get_fattime
    ff.o(i.f_mkfs) refers to ff.o(i.mem_cpy) for mem_cpy
    ff.o(i.f_mkfs) refers to ff.o(.data) for FatFs
    ff.o(i.f_mkfs) refers to ff.o(.constdata) for sstbl
    ff.o(i.f_mount) refers to ff.o(.data) for FatFs
    ff.o(i.f_open) refers to ff.o(i.chk_mounted) for chk_mounted
    ff.o(i.f_open) refers to ff.o(i.follow_path) for follow_path
    ff.o(i.f_open) refers to ff.o(i.dir_register) for dir_register
    ff.o(i.f_open) refers to ff.o(i.remove_chain) for remove_chain
    ff.o(i.f_open) refers to ff.o(i.move_window) for move_window
    ff.o(i.f_open) refers to fattime.o(i.get_fattime) for get_fattime
    ff.o(i.f_opendir) refers to ff.o(i.chk_mounted) for chk_mounted
    ff.o(i.f_opendir) refers to ff.o(i.follow_path) for follow_path
    ff.o(i.f_opendir) refers to ff.o(i.dir_seek) for dir_seek
    ff.o(i.f_printf) refers to ff.o(i.f_putc) for f_putc
    ff.o(i.f_printf) refers to ff.o(i.f_puts) for f_puts
    ff.o(i.f_putc) refers to ff.o(i.f_write) for f_write
    ff.o(i.f_puts) refers to ff.o(i.f_putc) for f_putc
    ff.o(i.f_read) refers to ff.o(i.validate) for validate
    ff.o(i.f_read) refers to ff.o(i.get_fat) for get_fat
    ff.o(i.f_read) refers to ff.o(i.clust2sect) for clust2sect
    ff.o(i.f_read) refers to diskio.o(i.disk_read) for disk_read
    ff.o(i.f_read) refers to ff.o(i.mem_cpy) for mem_cpy
    ff.o(i.f_read) refers to diskio.o(i.disk_write) for disk_write
    ff.o(i.f_readdir) refers to ff.o(i.validate) for validate
    ff.o(i.f_readdir) refers to ff.o(i.dir_seek) for dir_seek
    ff.o(i.f_readdir) refers to ff.o(i.dir_read) for dir_read
    ff.o(i.f_readdir) refers to ff.o(i.get_fileinfo) for get_fileinfo
    ff.o(i.f_readdir) refers to ff.o(i.dir_next) for dir_next
    ff.o(i.f_rename) refers to ff.o(i.chk_mounted) for chk_mounted
    ff.o(i.f_rename) refers to ff.o(i.follow_path) for follow_path
    ff.o(i.f_rename) refers to ff.o(i.mem_cpy) for mem_cpy
    ff.o(i.f_rename) refers to ff.o(i.dir_register) for dir_register
    ff.o(i.f_rename) refers to ff.o(i.clust2sect) for clust2sect
    ff.o(i.f_rename) refers to ff.o(i.move_window) for move_window
    ff.o(i.f_rename) refers to ff.o(i.dir_remove) for dir_remove
    ff.o(i.f_rename) refers to ff.o(i.sync) for sync
    ff.o(i.f_stat) refers to ff.o(i.chk_mounted) for chk_mounted
    ff.o(i.f_stat) refers to ff.o(i.follow_path) for follow_path
    ff.o(i.f_stat) refers to ff.o(i.get_fileinfo) for get_fileinfo
    ff.o(i.f_sync) refers to ff.o(i.validate) for validate
    ff.o(i.f_sync) refers to diskio.o(i.disk_write) for disk_write
    ff.o(i.f_sync) refers to ff.o(i.move_window) for move_window
    ff.o(i.f_sync) refers to fattime.o(i.get_fattime) for get_fattime
    ff.o(i.f_sync) refers to ff.o(i.sync) for sync
    ff.o(i.f_truncate) refers to ff.o(i.validate) for validate
    ff.o(i.f_truncate) refers to ff.o(i.remove_chain) for remove_chain
    ff.o(i.f_truncate) refers to ff.o(i.get_fat) for get_fat
    ff.o(i.f_truncate) refers to ff.o(i.put_fat) for put_fat
    ff.o(i.f_unlink) refers to ff.o(i.chk_mounted) for chk_mounted
    ff.o(i.f_unlink) refers to ff.o(i.follow_path) for follow_path
    ff.o(i.f_unlink) refers to ff.o(i.mem_cpy) for mem_cpy
    ff.o(i.f_unlink) refers to ff.o(i.dir_seek) for dir_seek
    ff.o(i.f_unlink) refers to ff.o(i.dir_read) for dir_read
    ff.o(i.f_unlink) refers to ff.o(i.dir_remove) for dir_remove
    ff.o(i.f_unlink) refers to ff.o(i.remove_chain) for remove_chain
    ff.o(i.f_unlink) refers to ff.o(i.sync) for sync
    ff.o(i.f_utime) refers to ff.o(i.chk_mounted) for chk_mounted
    ff.o(i.f_utime) refers to ff.o(i.follow_path) for follow_path
    ff.o(i.f_utime) refers to ff.o(i.sync) for sync
    ff.o(i.f_write) refers to ff.o(i.validate) for validate
    ff.o(i.f_write) refers to ff.o(i.create_chain) for create_chain
    ff.o(i.f_write) refers to diskio.o(i.disk_write) for disk_write
    ff.o(i.f_write) refers to ff.o(i.clust2sect) for clust2sect
    ff.o(i.f_write) refers to ff.o(i.mem_cpy) for mem_cpy
    ff.o(i.f_write) refers to diskio.o(i.disk_read) for disk_read
    ff.o(i.fit_lfn) refers to ff.o(.constdata) for LfnOfs
    ff.o(i.follow_path) refers to ff.o(i.dir_seek) for dir_seek
    ff.o(i.follow_path) refers to ff.o(i.create_name) for create_name
    ff.o(i.follow_path) refers to ff.o(i.dir_find) for dir_find
    ff.o(i.gen_numname) refers to ff.o(i.mem_cpy) for mem_cpy
    ff.o(i.get_fat) refers to ff.o(i.move_window) for move_window
    ff.o(i.get_fileinfo) refers to mycc936.o(i.ff_convert) for ff_convert
    ff.o(i.move_window) refers to diskio.o(i.disk_write) for disk_write
    ff.o(i.move_window) refers to diskio.o(i.disk_read) for disk_read
    ff.o(i.pick_lfn) refers to ff.o(.constdata) for LfnOfs
    ff.o(i.put_fat) refers to ff.o(i.move_window) for move_window
    ff.o(i.remove_chain) refers to ff.o(i.get_fat) for get_fat
    ff.o(i.remove_chain) refers to ff.o(i.put_fat) for put_fat
    ff.o(i.sync) refers to ff.o(i.move_window) for move_window
    ff.o(i.sync) refers to ff.o(i.mem_set) for mem_set
    ff.o(i.sync) refers to diskio.o(i.disk_write) for disk_write
    ff.o(i.sync) refers to diskio.o(i.disk_ioctl) for disk_ioctl
    ff.o(i.validate) refers to diskio.o(i.disk_status) for disk_status
    exfuns.o(i.exf_getfree) refers to ff.o(i.f_getfree) for f_getfree
    exfuns.o(.constdata) refers to exfuns.o(.conststring) for .conststring
    diskio.o(i.disk_initialize) refers to sd.o(i.SD_Initialize) for SD_Initialize
    diskio.o(i.disk_initialize) refers to sd.o(i.SD_SPI_SpeedLow) for SD_SPI_SpeedLow
    diskio.o(i.disk_initialize) refers to sd.o(i.SD_SPI_ReadWriteByte) for SD_SPI_ReadWriteByte
    diskio.o(i.disk_initialize) refers to sd.o(i.SD_SPI_SpeedHigh) for SD_SPI_SpeedHigh
    diskio.o(i.disk_initialize) refers to usb_hcd.o(i.HCD_IsDeviceConnected) for HCD_IsDeviceConnected
    diskio.o(i.disk_initialize) refers to main.o(.bss) for USB_OTG_Core
    diskio.o(i.disk_initialize) refers to diskio.o(.data) for Stat
    diskio.o(i.disk_ioctl) refers to sd.o(i.SD_WaitReady) for SD_WaitReady
    diskio.o(i.disk_ioctl) refers to sd.o(i.SD_GetSectorCount) for SD_GetSectorCount
    diskio.o(i.disk_ioctl) refers to diskio.o(.data) for Stat
    diskio.o(i.disk_ioctl) refers to usbh_msc_scsi.o(.bss) for USBH_MSC_Param
    diskio.o(i.disk_read) refers to usb_hcd.o(i.HCD_IsDeviceConnected) for HCD_IsDeviceConnected
    diskio.o(i.disk_read) refers to usbh_msc_scsi.o(i.USBH_MSC_Read10) for USBH_MSC_Read10
    diskio.o(i.disk_read) refers to usbh_msc_bot.o(i.USBH_MSC_HandleBOTXfer) for USBH_MSC_HandleBOTXfer
    diskio.o(i.disk_read) refers to sd.o(i.SD_ReadDisk) for SD_ReadDisk
    diskio.o(i.disk_read) refers to sd.o(i.SD_SPI_SpeedLow) for SD_SPI_SpeedLow
    diskio.o(i.disk_read) refers to sd.o(i.SD_SPI_ReadWriteByte) for SD_SPI_ReadWriteByte
    diskio.o(i.disk_read) refers to sd.o(i.SD_SPI_SpeedHigh) for SD_SPI_SpeedHigh
    diskio.o(i.disk_read) refers to diskio.o(.data) for Stat
    diskio.o(i.disk_read) refers to main.o(.bss) for USB_OTG_Core
    diskio.o(i.disk_status) refers to diskio.o(.data) for Stat
    diskio.o(i.disk_write) refers to usb_hcd.o(i.HCD_IsDeviceConnected) for HCD_IsDeviceConnected
    diskio.o(i.disk_write) refers to usbh_msc_scsi.o(i.USBH_MSC_Write10) for USBH_MSC_Write10
    diskio.o(i.disk_write) refers to usbh_msc_bot.o(i.USBH_MSC_HandleBOTXfer) for USBH_MSC_HandleBOTXfer
    diskio.o(i.disk_write) refers to sd.o(i.SD_WriteDisk) for SD_WriteDisk
    diskio.o(i.disk_write) refers to diskio.o(.data) for Stat
    diskio.o(i.disk_write) refers to main.o(.bss) for USB_OTG_Core
    mycc936.o(i.ff_wtoupper) refers to mycc936.o(.constdata) for tbl_lower
    key.o(i.KEY_Init) refers to stm32f4xx_rcc.o(i.RCC_AHB1PeriphClockCmd) for RCC_AHB1PeriphClockCmd
    key.o(i.KEY_Init) refers to stm32f4xx_gpio.o(i.GPIO_Init) for GPIO_Init
    key.o(i.KEY_Scan) refers to delay.o(i.delay_ms) for delay_ms
    key.o(i.KEY_Scan) refers to key.o(.data) for key_up
    lcd.o(i.DrawPage) refers to lcd.o(i.LCD_Fill) for LCD_Fill
    lcd.o(i.DrawPage) refers to lcd.o(i.Gui_StrCenter) for Gui_StrCenter
    lcd.o(i.DrawPage) refers to lcd.o(.bss) for lcddev
    lcd.o(i.DrawPage) refers to lcd.o(.data) for POINT_COLOR
    lcd.o(i.GUI_DrawFont16) refers to lcd.o(i.LCD_SetWindows) for LCD_SetWindows
    lcd.o(i.GUI_DrawFont16) refers to lcd.o(i.LCD_DrawPoint_16Bit) for LCD_DrawPoint_16Bit
    lcd.o(i.GUI_DrawFont16) refers to lcd.o(i.LCD_DrawPoint) for LCD_DrawPoint
    lcd.o(i.GUI_DrawFont16) refers to lcd.o(.constdata) for tfont16
    lcd.o(i.GUI_DrawFont16) refers to lcd.o(.data) for POINT_COLOR
    lcd.o(i.GUI_DrawFont16) refers to lcd.o(.bss) for lcddev
    lcd.o(i.GUI_DrawFont24) refers to lcd.o(i.LCD_SetWindows) for LCD_SetWindows
    lcd.o(i.GUI_DrawFont24) refers to lcd.o(i.LCD_DrawPoint_16Bit) for LCD_DrawPoint_16Bit
    lcd.o(i.GUI_DrawFont24) refers to lcd.o(i.LCD_DrawPoint) for LCD_DrawPoint
    lcd.o(i.GUI_DrawFont24) refers to lcd.o(.constdata) for tfont24
    lcd.o(i.GUI_DrawFont24) refers to lcd.o(.data) for POINT_COLOR
    lcd.o(i.GUI_DrawFont24) refers to lcd.o(.bss) for lcddev
    lcd.o(i.GUI_DrawFont32) refers to lcd.o(i.LCD_SetWindows) for LCD_SetWindows
    lcd.o(i.GUI_DrawFont32) refers to lcd.o(i.LCD_DrawPoint_16Bit) for LCD_DrawPoint_16Bit
    lcd.o(i.GUI_DrawFont32) refers to lcd.o(i.LCD_DrawPoint) for LCD_DrawPoint
    lcd.o(i.GUI_DrawFont32) refers to lcd.o(.constdata) for tfont32
    lcd.o(i.GUI_DrawFont32) refers to lcd.o(.data) for POINT_COLOR
    lcd.o(i.GUI_DrawFont32) refers to lcd.o(.bss) for lcddev
    lcd.o(i.GUI_DrawPoint) refers to lcd.o(i.LCD_SetCursor) for LCD_SetCursor
    lcd.o(i.GUI_DrawPoint) refers to lcd.o(i.LCD_DrawPoint_16Bit) for LCD_DrawPoint_16Bit
    lcd.o(i.GUI_Fast_DrawPoint) refers to lcd.o(i.LCD_WR_REG) for LCD_WR_REG
    lcd.o(i.GUI_Fast_DrawPoint) refers to lcd.o(i.LCD_WR_DATA) for LCD_WR_DATA
    lcd.o(i.GUI_Fast_DrawPoint) refers to lcd.o(i.LCD_WriteRAM_Prepare) for LCD_WriteRAM_Prepare
    lcd.o(i.GUI_Fast_DrawPoint) refers to lcd.o(i.LCD_DrawPoint_16Bit) for LCD_DrawPoint_16Bit
    lcd.o(i.GUI_Fast_DrawPoint) refers to lcd.o(.bss) for lcddev
    lcd.o(i.Gui_StrCenter) refers to strlen.o(.text) for strlen
    lcd.o(i.Gui_StrCenter) refers to lcd.o(i.Show_Str) for Show_Str
    lcd.o(i.Gui_StrCenter) refers to lcd.o(.bss) for lcddev
    lcd.o(i.Gui_icon) refers to lcd.o(i.LCD_SetWindows) for LCD_SetWindows
    lcd.o(i.Gui_icon) refers to lcd.o(i.LCD_DrawPoint_16Bit) for LCD_DrawPoint_16Bit
    lcd.o(i.Gui_icon) refers to lcd.o(.bss) for lcddev
    lcd.o(i.LCD_Clear) refers to lcd.o(i.LCD_SetWindows) for LCD_SetWindows
    lcd.o(i.LCD_Clear) refers to lcd.o(.bss) for lcddev
    lcd.o(i.LCD_DrawFillRectangle) refers to lcd.o(i.LCD_Fill) for LCD_Fill
    lcd.o(i.LCD_DrawLine) refers to lcd.o(i.LCD_DrawPoint) for LCD_DrawPoint
    lcd.o(i.LCD_DrawPoint) refers to lcd.o(i.LCD_SetCursor) for LCD_SetCursor
    lcd.o(i.LCD_DrawPoint) refers to lcd.o(.data) for POINT_COLOR
    lcd.o(i.LCD_DrawRectangle) refers to lcd.o(i.LCD_DrawLine) for LCD_DrawLine
    lcd.o(i.LCD_Fill) refers to lcd.o(i.LCD_SetWindows) for LCD_SetWindows
    lcd.o(i.LCD_Fill) refers to lcd.o(.bss) for lcddev
    lcd.o(i.LCD_GPIOInit) refers to stm32f4xx_rcc.o(i.RCC_AHB1PeriphClockCmd) for RCC_AHB1PeriphClockCmd
    lcd.o(i.LCD_GPIOInit) refers to stm32f4xx_gpio.o(i.GPIO_Init) for GPIO_Init
    lcd.o(i.LCD_GPIOInit) refers to stm32f4xx_gpio.o(i.GPIO_SetBits) for GPIO_SetBits
    lcd.o(i.LCD_Init) refers to lcd.o(i.LCD_GPIOInit) for LCD_GPIOInit
    lcd.o(i.LCD_Init) refers to lcd.o(i.LCD_RESET) for LCD_RESET
    lcd.o(i.LCD_Init) refers to lcd.o(i.LCD_WR_REG) for LCD_WR_REG
    lcd.o(i.LCD_Init) refers to lcd.o(i.LCD_WR_DATA) for LCD_WR_DATA
    lcd.o(i.LCD_Init) refers to lcd.o(i.Lcd_Delay) for Lcd_Delay
    lcd.o(i.LCD_Init) refers to lcd.o(i.LCD_SetParam) for LCD_SetParam
    lcd.o(i.LCD_Init) refers to lcd.o(i.LCD_Clear) for LCD_Clear
    lcd.o(i.LCD_RESET) refers to lcd.o(i.Lcd_Delay) for Lcd_Delay
    lcd.o(i.LCD_ReadPoint) refers to lcd.o(i.LCD_SetCursor) for LCD_SetCursor
    lcd.o(i.LCD_ReadPoint) refers to lcd.o(i.LCD_WR_REG) for LCD_WR_REG
    lcd.o(i.LCD_ReadPoint) refers to lcd.o(i.LCD_BGR2RGB) for LCD_BGR2RGB
    lcd.o(i.LCD_ReadPoint) refers to lcd.o(.bss) for lcddev
    lcd.o(i.LCD_SetCursor) refers to lcd.o(i.LCD_WR_REG) for LCD_WR_REG
    lcd.o(i.LCD_SetCursor) refers to lcd.o(i.LCD_WR_DATA) for LCD_WR_DATA
    lcd.o(i.LCD_SetCursor) refers to lcd.o(i.LCD_WriteRAM_Prepare) for LCD_WriteRAM_Prepare
    lcd.o(i.LCD_SetCursor) refers to lcd.o(.bss) for lcddev
    lcd.o(i.LCD_SetParam) refers to lcd.o(i.LCD_WriteReg) for LCD_WriteReg
    lcd.o(i.LCD_SetParam) refers to lcd.o(.bss) for lcddev
    lcd.o(i.LCD_SetWindows) refers to lcd.o(i.LCD_WR_REG) for LCD_WR_REG
    lcd.o(i.LCD_SetWindows) refers to lcd.o(i.LCD_WR_DATA) for LCD_WR_DATA
    lcd.o(i.LCD_SetWindows) refers to lcd.o(i.LCD_WriteRAM_Prepare) for LCD_WriteRAM_Prepare
    lcd.o(i.LCD_SetWindows) refers to lcd.o(.bss) for lcddev
    lcd.o(i.LCD_ShowChar) refers to lcd.o(i.LCD_SetWindows) for LCD_SetWindows
    lcd.o(i.LCD_ShowChar) refers to lcd.o(i.LCD_DrawPoint_16Bit) for LCD_DrawPoint_16Bit
    lcd.o(i.LCD_ShowChar) refers to lcd.o(i.LCD_DrawPoint) for LCD_DrawPoint
    lcd.o(i.LCD_ShowChar) refers to lcd.o(.data) for POINT_COLOR
    lcd.o(i.LCD_ShowChar) refers to lcd.o(.constdata) for asc2_1206
    lcd.o(i.LCD_ShowChar) refers to lcd.o(.bss) for lcddev
    lcd.o(i.LCD_ShowNum) refers to lcd.o(i.mypow) for mypow
    lcd.o(i.LCD_ShowNum) refers to lcd.o(i.LCD_ShowChar) for LCD_ShowChar
    lcd.o(i.LCD_ShowNum) refers to lcd.o(.data) for BACK_COLOR
    lcd.o(i.LCD_ShowString) refers to lcd.o(i.LCD_ShowChar) for LCD_ShowChar
    lcd.o(i.LCD_ShowString) refers to lcd.o(.bss) for lcddev
    lcd.o(i.LCD_ShowString) refers to lcd.o(.data) for BACK_COLOR
    lcd.o(i.LCD_WriteRAM_Prepare) refers to lcd.o(i.LCD_WR_REG) for LCD_WR_REG
    lcd.o(i.LCD_WriteRAM_Prepare) refers to lcd.o(.bss) for lcddev
    lcd.o(i.LCD_WriteReg) refers to lcd.o(i.LCD_WR_REG) for LCD_WR_REG
    lcd.o(i.LCD_WriteReg) refers to lcd.o(i.LCD_WR_DATA) for LCD_WR_DATA
    lcd.o(i.Show_Str) refers to lcd.o(i.LCD_ShowChar) for LCD_ShowChar
    lcd.o(i.Show_Str) refers to lcd.o(i.GUI_DrawFont32) for GUI_DrawFont32
    lcd.o(i.Show_Str) refers to lcd.o(i.GUI_DrawFont24) for GUI_DrawFont24
    lcd.o(i.Show_Str) refers to lcd.o(i.GUI_DrawFont16) for GUI_DrawFont16
    lcd.o(i.Show_Str) refers to lcd.o(.bss) for lcddev
    lcd.o(i._draw_circle_8) refers to lcd.o(i.GUI_DrawPoint) for GUI_DrawPoint
    lcd.o(i.gui_circle) refers to lcd.o(i._draw_circle_8) for _draw_circle_8
    led.o(i.LED_Init) refers to stm32f4xx_rcc.o(i.RCC_AHB1PeriphClockCmd) for RCC_AHB1PeriphClockCmd
    led.o(i.LED_Init) refers to stm32f4xx_gpio.o(i.GPIO_Init) for GPIO_Init
    sd.o(i.CSPin_Init) refers to stm32f4xx_rcc.o(i.RCC_AHB1PeriphClockCmd) for RCC_AHB1PeriphClockCmd
    sd.o(i.CSPin_Init) refers to stm32f4xx_gpio.o(i.GPIO_Init) for GPIO_Init
    sd.o(i.CSPin_Init) refers to stm32f4xx_gpio.o(i.GPIO_SetBits) for GPIO_SetBits
    sd.o(i.SD_DisSelect) refers to stm32f4xx_gpio.o(i.GPIO_SetBits) for GPIO_SetBits
    sd.o(i.SD_DisSelect) refers to sd.o(i.SD_SPI_ReadWriteByte) for SD_SPI_ReadWriteByte
    sd.o(i.SD_GetCID) refers to sd.o(i.SD_SendCmd) for SD_SendCmd
    sd.o(i.SD_GetCID) refers to sd.o(i.SD_RecvData) for SD_RecvData
    sd.o(i.SD_GetCID) refers to sd.o(i.SD_DisSelect) for SD_DisSelect
    sd.o(i.SD_GetCSD) refers to sd.o(i.SD_SendCmd) for SD_SendCmd
    sd.o(i.SD_GetCSD) refers to sd.o(i.SD_RecvData) for SD_RecvData
    sd.o(i.SD_GetCSD) refers to sd.o(i.SD_DisSelect) for SD_DisSelect
    sd.o(i.SD_GetResponse) refers to sd.o(i.SD_SPI_ReadWriteByte) for SD_SPI_ReadWriteByte
    sd.o(i.SD_GetSectorCount) refers to sd.o(i.SD_GetCSD) for SD_GetCSD
    sd.o(i.SD_Initialize) refers to sd.o(i.CSPin_Init) for CSPin_Init
    sd.o(i.SD_Initialize) refers to sd.o(i.SPI1_Init) for SPI1_Init
    sd.o(i.SD_Initialize) refers to sd.o(i.SD_SPI_SpeedLow) for SD_SPI_SpeedLow
    sd.o(i.SD_Initialize) refers to sd.o(i.SD_SPI_ReadWriteByte) for SD_SPI_ReadWriteByte
    sd.o(i.SD_Initialize) refers to sd.o(i.SD_SendCmd) for SD_SendCmd
    sd.o(i.SD_Initialize) refers to sd.o(i.SD_DisSelect) for SD_DisSelect
    sd.o(i.SD_Initialize) refers to sd.o(i.SD_SPI_SpeedHigh) for SD_SPI_SpeedHigh
    sd.o(i.SD_Initialize) refers to sd.o(.data) for SD_Type
    sd.o(i.SD_ReadDisk) refers to sd.o(i.SD_SendCmd) for SD_SendCmd
    sd.o(i.SD_ReadDisk) refers to sd.o(i.SD_RecvData) for SD_RecvData
    sd.o(i.SD_ReadDisk) refers to sd.o(i.SD_DisSelect) for SD_DisSelect
    sd.o(i.SD_ReadDisk) refers to sd.o(.data) for SD_Type
    sd.o(i.SD_RecvData) refers to sd.o(i.SD_GetResponse) for SD_GetResponse
    sd.o(i.SD_RecvData) refers to sd.o(i.SPI1_ReadWriteByte) for SPI1_ReadWriteByte
    sd.o(i.SD_RecvData) refers to sd.o(i.SD_SPI_ReadWriteByte) for SD_SPI_ReadWriteByte
    sd.o(i.SD_SPI_ReadWriteByte) refers to sd.o(i.SPI1_ReadWriteByte) for SPI1_ReadWriteByte
    sd.o(i.SD_SPI_SpeedHigh) refers to sd.o(i.SPI1_SetSpeed) for SPI1_SetSpeed
    sd.o(i.SD_SPI_SpeedLow) refers to sd.o(i.SPI1_SetSpeed) for SPI1_SetSpeed
    sd.o(i.SD_Select) refers to stm32f4xx_gpio.o(i.GPIO_ResetBits) for GPIO_ResetBits
    sd.o(i.SD_Select) refers to sd.o(i.SD_WaitReady) for SD_WaitReady
    sd.o(i.SD_Select) refers to sd.o(i.SD_DisSelect) for SD_DisSelect
    sd.o(i.SD_SendBlock) refers to sd.o(i.SD_WaitReady) for SD_WaitReady
    sd.o(i.SD_SendBlock) refers to sd.o(i.SD_SPI_ReadWriteByte) for SD_SPI_ReadWriteByte
    sd.o(i.SD_SendBlock) refers to sd.o(i.SPI1_ReadWriteByte) for SPI1_ReadWriteByte
    sd.o(i.SD_SendCmd) refers to sd.o(i.SD_DisSelect) for SD_DisSelect
    sd.o(i.SD_SendCmd) refers to sd.o(i.SD_Select) for SD_Select
    sd.o(i.SD_SendCmd) refers to sd.o(i.SD_SPI_ReadWriteByte) for SD_SPI_ReadWriteByte
    sd.o(i.SD_WaitReady) refers to sd.o(i.SD_SPI_ReadWriteByte) for SD_SPI_ReadWriteByte
    sd.o(i.SD_WriteDisk) refers to sd.o(i.SD_SendCmd) for SD_SendCmd
    sd.o(i.SD_WriteDisk) refers to sd.o(i.SD_SendBlock) for SD_SendBlock
    sd.o(i.SD_WriteDisk) refers to sd.o(i.SD_DisSelect) for SD_DisSelect
    sd.o(i.SD_WriteDisk) refers to sd.o(.data) for SD_Type
    sd.o(i.SPI1_Init) refers to stm32f4xx_rcc.o(i.RCC_AHB1PeriphClockCmd) for RCC_AHB1PeriphClockCmd
    sd.o(i.SPI1_Init) refers to stm32f4xx_rcc.o(i.RCC_APB2PeriphClockCmd) for RCC_APB2PeriphClockCmd
    sd.o(i.SPI1_Init) refers to stm32f4xx_gpio.o(i.GPIO_PinAFConfig) for GPIO_PinAFConfig
    sd.o(i.SPI1_Init) refers to stm32f4xx_gpio.o(i.GPIO_Init) for GPIO_Init
    sd.o(i.SPI1_Init) refers to stm32f4xx_gpio.o(i.GPIO_SetBits) for GPIO_SetBits
    sd.o(i.SPI1_Init) refers to stm32f4xx_spi.o(i.SPI_Init) for SPI_Init
    sd.o(i.SPI1_Init) refers to stm32f4xx_spi.o(i.SPI_Cmd) for SPI_Cmd
    sd.o(i.SPI1_ReadWriteByte) refers to stm32f4xx_spi.o(i.SPI_I2S_GetFlagStatus) for SPI_I2S_GetFlagStatus
    sd.o(i.SPI1_ReadWriteByte) refers to stm32f4xx_spi.o(i.SPI_I2S_SendData) for SPI_I2S_SendData
    sd.o(i.SPI1_ReadWriteByte) refers to stm32f4xx_spi.o(i.SPI_I2S_ReceiveData) for SPI_I2S_ReceiveData
    sd.o(i.SPI1_SetSpeed) refers to stm32f4xx_spi.o(i.SPI_Cmd) for SPI_Cmd
    sd.o(i.get_TF_free) refers to delay.o(i.delay_ms) for delay_ms
    sd.o(i.get_TF_free) refers to exfuns.o(i.exf_getfree) for exf_getfree
    sd.o(i.get_TF_free) refers to lcd.o(i.Show_Str) for Show_Str
    sd.o(i.get_TF_free) refers to lcd.o(i.LCD_ShowNum) for LCD_ShowNum
    sd.o(i.get_TF_free) refers to sd.o(.data) for free1
    sd.o(i.get_USB_free) refers to delay.o(i.delay_ms) for delay_ms
    sd.o(i.get_USB_free) refers to exfuns.o(i.exf_getfree) for exf_getfree
    sd.o(i.get_USB_free) refers to lcd.o(i.Show_Str) for Show_Str
    sd.o(i.get_USB_free) refers to lcd.o(i.LCD_ShowNum) for LCD_ShowNum
    sd.o(i.get_USB_free) refers to sd.o(.data) for free1
    codec.o(i.Audio_MAL_DeInit) refers to misc.o(i.NVIC_Init) for NVIC_Init
    codec.o(i.Audio_MAL_DeInit) refers to stm32f4xx_dma.o(i.DMA_Cmd) for DMA_Cmd
    codec.o(i.Audio_MAL_DeInit) refers to stm32f4xx_dma.o(i.DMA_DeInit) for DMA_DeInit
    codec.o(i.Audio_MAL_DeInit) refers to codec.o(.data) for AUDIO_MAL_DMA_IRQ
    codec.o(i.Audio_MAL_IRQHandler) refers to stm32f4xx_dma.o(i.DMA_GetFlagStatus) for DMA_GetFlagStatus
    codec.o(i.Audio_MAL_IRQHandler) refers to stm32f4xx_dma.o(i.DMA_GetCmdStatus) for DMA_GetCmdStatus
    codec.o(i.Audio_MAL_IRQHandler) refers to stm32f4xx_dma.o(i.DMA_ClearFlag) for DMA_ClearFlag
    codec.o(i.Audio_MAL_IRQHandler) refers to stm32f4xx_dma.o(i.DMA_Init) for DMA_Init
    codec.o(i.Audio_MAL_IRQHandler) refers to stm32f4xx_dma.o(i.DMA_Cmd) for DMA_Cmd
    codec.o(i.Audio_MAL_IRQHandler) refers to mp3play.o(i.EVAL_AUDIO_TransferComplete_CallBack) for EVAL_AUDIO_TransferComplete_CallBack
    codec.o(i.Audio_MAL_IRQHandler) refers to codec.o(.data) for AUDIO_MAL_DMA_FLAG_TC
    codec.o(i.Audio_MAL_IRQHandler) refers to codec.o(.bss) for DMA_InitStructure
    codec.o(i.Audio_MAL_Init) refers to stm32f4xx_rcc.o(i.RCC_AHB1PeriphClockCmd) for RCC_AHB1PeriphClockCmd
    codec.o(i.Audio_MAL_Init) refers to stm32f4xx_dma.o(i.DMA_Cmd) for DMA_Cmd
    codec.o(i.Audio_MAL_Init) refers to stm32f4xx_dma.o(i.DMA_DeInit) for DMA_DeInit
    codec.o(i.Audio_MAL_Init) refers to stm32f4xx_dma.o(i.DMA_Init) for DMA_Init
    codec.o(i.Audio_MAL_Init) refers to stm32f4xx_dma.o(i.DMA_ITConfig) for DMA_ITConfig
    codec.o(i.Audio_MAL_Init) refers to misc.o(i.NVIC_Init) for NVIC_Init
    codec.o(i.Audio_MAL_Init) refers to stm32f4xx_spi.o(i.SPI_I2S_DMACmd) for SPI_I2S_DMACmd
    codec.o(i.Audio_MAL_Init) refers to codec.o(i.DAC_Config) for DAC_Config
    codec.o(i.Audio_MAL_Init) refers to stm32f4xx_spi.o(i.SPI_I2S_ITConfig) for SPI_I2S_ITConfig
    codec.o(i.Audio_MAL_Init) refers to codec.o(.data) for CurrAudioInterface
    codec.o(i.Audio_MAL_Init) refers to codec.o(.bss) for DMA_InitStructure
    codec.o(i.Audio_MAL_PauseResume) refers to stm32f4xx_spi.o(i.SPI_I2S_DMACmd) for SPI_I2S_DMACmd
    codec.o(i.Audio_MAL_PauseResume) refers to stm32f4xx_dma.o(i.DMA_Cmd) for DMA_Cmd
    codec.o(i.Audio_MAL_PauseResume) refers to stm32f4xx_spi.o(i.I2S_Cmd) for I2S_Cmd
    codec.o(i.Audio_MAL_PauseResume) refers to codec.o(.data) for AUDIO_MAL_DMA_STREAM
    codec.o(i.Audio_MAL_Play) refers to stm32f4xx_dma.o(i.DMA_Init) for DMA_Init
    codec.o(i.Audio_MAL_Play) refers to stm32f4xx_dma.o(i.DMA_Cmd) for DMA_Cmd
    codec.o(i.Audio_MAL_Play) refers to stm32f4xx_spi.o(i.I2S_Cmd) for I2S_Cmd
    codec.o(i.Audio_MAL_Play) refers to codec.o(.data) for CurrAudioInterface
    codec.o(i.Audio_MAL_Play) refers to codec.o(.bss) for DMA_InitStructure
    codec.o(i.Audio_MAL_Stop) refers to stm32f4xx_dma.o(i.DMA_Cmd) for DMA_Cmd
    codec.o(i.Audio_MAL_Stop) refers to stm32f4xx_dma.o(i.DMA_ClearFlag) for DMA_ClearFlag
    codec.o(i.Audio_MAL_Stop) refers to stm32f4xx_spi.o(i.I2S_Cmd) for I2S_Cmd
    codec.o(i.Audio_MAL_Stop) refers to codec.o(.data) for AUDIO_MAL_DMA_STREAM
    codec.o(i.Codec_AudioInterface_DeInit) refers to stm32f4xx_spi.o(i.I2S_Cmd) for I2S_Cmd
    codec.o(i.Codec_AudioInterface_DeInit) refers to stm32f4xx_spi.o(i.SPI_I2S_DeInit) for SPI_I2S_DeInit
    codec.o(i.Codec_AudioInterface_DeInit) refers to stm32f4xx_rcc.o(i.RCC_APB1PeriphClockCmd) for RCC_APB1PeriphClockCmd
    codec.o(i.Codec_AudioInterface_Init) refers to stm32f4xx_rcc.o(i.RCC_APB1PeriphClockCmd) for RCC_APB1PeriphClockCmd
    codec.o(i.Codec_AudioInterface_Init) refers to stm32f4xx_spi.o(i.SPI_I2S_DeInit) for SPI_I2S_DeInit
    codec.o(i.Codec_AudioInterface_Init) refers to stm32f4xx_spi.o(i.I2S_Init) for I2S_Init
    codec.o(i.Codec_AudioInterface_Init) refers to stm32f4xx_dac.o(i.DAC_Init) for DAC_Init
    codec.o(i.Codec_AudioInterface_Init) refers to stm32f4xx_dac.o(i.DAC_Cmd) for DAC_Cmd
    codec.o(i.Codec_AudioInterface_Init) refers to codec.o(.data) for CurrAudioInterface
    codec.o(i.Codec_CtrlInterface_Init) refers to stm32f4xx_rcc.o(i.RCC_APB1PeriphClockCmd) for RCC_APB1PeriphClockCmd
    codec.o(i.Codec_CtrlInterface_Init) refers to stm32f4xx_i2c.o(i.I2C_DeInit) for I2C_DeInit
    codec.o(i.Codec_CtrlInterface_Init) refers to stm32f4xx_i2c.o(i.I2C_Cmd) for I2C_Cmd
    codec.o(i.Codec_CtrlInterface_Init) refers to stm32f4xx_i2c.o(i.I2C_Init) for I2C_Init
    codec.o(i.Codec_DeInit) refers to codec.o(i.Codec_Reset) for Codec_Reset
    codec.o(i.Codec_DeInit) refers to codec.o(i.Codec_WriteRegister) for Codec_WriteRegister
    codec.o(i.Codec_DeInit) refers to codec.o(i.Codec_GPIO_DeInit) for Codec_GPIO_DeInit
    codec.o(i.Codec_DeInit) refers to codec.o(i.Codec_CtrlInterface_DeInit) for Codec_CtrlInterface_DeInit
    codec.o(i.Codec_DeInit) refers to codec.o(i.Codec_AudioInterface_DeInit) for Codec_AudioInterface_DeInit
    codec.o(i.Codec_GPIO_DeInit) refers to stm32f4xx_gpio.o(i.GPIO_Init) for GPIO_Init
    codec.o(i.Codec_GPIO_DeInit) refers to stm32f4xx_gpio.o(i.GPIO_PinAFConfig) for GPIO_PinAFConfig
    codec.o(i.Codec_GPIO_Init) refers to stm32f4xx_rcc.o(i.RCC_AHB1PeriphClockCmd) for RCC_AHB1PeriphClockCmd
    codec.o(i.Codec_GPIO_Init) refers to stm32f4xx_gpio.o(i.GPIO_Init) for GPIO_Init
    codec.o(i.Codec_GPIO_Init) refers to stm32f4xx_gpio.o(i.GPIO_PinAFConfig) for GPIO_PinAFConfig
    codec.o(i.Codec_GPIO_Init) refers to codec.o(.data) for CurrAudioInterface
    codec.o(i.Codec_Init) refers to codec.o(i.Codec_GPIO_Init) for Codec_GPIO_Init
    codec.o(i.Codec_Init) refers to codec.o(i.Codec_Reset) for Codec_Reset
    codec.o(i.Codec_Init) refers to codec.o(i.Codec_CtrlInterface_Init) for Codec_CtrlInterface_Init
    codec.o(i.Codec_Init) refers to codec.o(i.Codec_WriteRegister) for Codec_WriteRegister
    codec.o(i.Codec_Init) refers to codec.o(i.Codec_VolumeCtrl) for Codec_VolumeCtrl
    codec.o(i.Codec_Init) refers to codec.o(i.Codec_AudioInterface_Init) for Codec_AudioInterface_Init
    codec.o(i.Codec_Init) refers to codec.o(.data) for OutputDev
    codec.o(i.Codec_Mute) refers to codec.o(i.Codec_WriteRegister) for Codec_WriteRegister
    codec.o(i.Codec_Mute) refers to codec.o(.data) for OutputDev
    codec.o(i.Codec_PauseResume) refers to codec.o(i.Codec_Mute) for Codec_Mute
    codec.o(i.Codec_PauseResume) refers to codec.o(i.Codec_WriteRegister) for Codec_WriteRegister
    codec.o(i.Codec_PauseResume) refers to codec.o(.data) for OutputDev
    codec.o(i.Codec_ReadRegister) refers to mp3play.o(i.Codec_TIMEOUT_UserCallback) for Codec_TIMEOUT_UserCallback
    codec.o(i.Codec_ReadRegister) refers to stm32f4xx_i2c.o(i.I2C_GetFlagStatus) for I2C_GetFlagStatus
    codec.o(i.Codec_ReadRegister) refers to stm32f4xx_i2c.o(i.I2C_GenerateSTART) for I2C_GenerateSTART
    codec.o(i.Codec_ReadRegister) refers to stm32f4xx_i2c.o(i.I2C_CheckEvent) for I2C_CheckEvent
    codec.o(i.Codec_ReadRegister) refers to stm32f4xx_i2c.o(i.I2C_Send7bitAddress) for I2C_Send7bitAddress
    codec.o(i.Codec_ReadRegister) refers to stm32f4xx_i2c.o(i.I2C_SendData) for I2C_SendData
    codec.o(i.Codec_ReadRegister) refers to stm32f4xx_i2c.o(i.I2C_AcknowledgeConfig) for I2C_AcknowledgeConfig
    codec.o(i.Codec_ReadRegister) refers to stm32f4xx_i2c.o(i.I2C_GenerateSTOP) for I2C_GenerateSTOP
    codec.o(i.Codec_ReadRegister) refers to stm32f4xx_i2c.o(i.I2C_ReceiveData) for I2C_ReceiveData
    codec.o(i.Codec_ReadRegister) refers to stm32f4xx_i2c.o(i.I2C_ClearFlag) for I2C_ClearFlag
    codec.o(i.Codec_ReadRegister) refers to codec.o(.data) for CODECTimeout
    codec.o(i.Codec_Reset) refers to stm32f4xx_gpio.o(i.GPIO_WriteBit) for GPIO_WriteBit
    codec.o(i.Codec_Reset) refers to codec.o(i.Delay) for Delay
    codec.o(i.Codec_Stop) refers to codec.o(i.Codec_Mute) for Codec_Mute
    codec.o(i.Codec_Stop) refers to codec.o(i.Codec_WriteRegister) for Codec_WriteRegister
    codec.o(i.Codec_Stop) refers to codec.o(i.Delay) for Delay
    codec.o(i.Codec_Stop) refers to stm32f4xx_gpio.o(i.GPIO_WriteBit) for GPIO_WriteBit
    codec.o(i.Codec_VolumeCtrl) refers to codec.o(i.Codec_WriteRegister) for Codec_WriteRegister
    codec.o(i.Codec_WriteRegister) refers to mp3play.o(i.Codec_TIMEOUT_UserCallback) for Codec_TIMEOUT_UserCallback
    codec.o(i.Codec_WriteRegister) refers to stm32f4xx_i2c.o(i.I2C_GetFlagStatus) for I2C_GetFlagStatus
    codec.o(i.Codec_WriteRegister) refers to stm32f4xx_i2c.o(i.I2C_GenerateSTART) for I2C_GenerateSTART
    codec.o(i.Codec_WriteRegister) refers to stm32f4xx_i2c.o(i.I2C_CheckEvent) for I2C_CheckEvent
    codec.o(i.Codec_WriteRegister) refers to stm32f4xx_i2c.o(i.I2C_Send7bitAddress) for I2C_Send7bitAddress
    codec.o(i.Codec_WriteRegister) refers to stm32f4xx_i2c.o(i.I2C_SendData) for I2C_SendData
    codec.o(i.Codec_WriteRegister) refers to stm32f4xx_i2c.o(i.I2C_GenerateSTOP) for I2C_GenerateSTOP
    codec.o(i.Codec_WriteRegister) refers to codec.o(i.Codec_ReadRegister) for Codec_ReadRegister
    codec.o(i.Codec_WriteRegister) refers to codec.o(.data) for CODECTimeout
    codec.o(i.DAC_Config) refers to stm32f4xx_rcc.o(i.RCC_AHB1PeriphClockCmd) for RCC_AHB1PeriphClockCmd
    codec.o(i.DAC_Config) refers to stm32f4xx_rcc.o(i.RCC_APB1PeriphClockCmd) for RCC_APB1PeriphClockCmd
    codec.o(i.DAC_Config) refers to stm32f4xx_gpio.o(i.GPIO_Init) for GPIO_Init
    codec.o(i.DAC_Config) refers to stm32f4xx_dac.o(i.DAC_Init) for DAC_Init
    codec.o(i.DAC_Config) refers to stm32f4xx_dac.o(i.DAC_Cmd) for DAC_Cmd
    codec.o(i.DMA1_Stream0_IRQHandler) refers to codec.o(i.Audio_MAL_IRQHandler) for Audio_MAL_IRQHandler
    codec.o(i.DMA1_Stream7_IRQHandler) refers to codec.o(i.Audio_MAL_IRQHandler) for Audio_MAL_IRQHandler
    codec.o(i.EVAL_AUDIO_DeInit) refers to codec.o(i.Audio_MAL_DeInit) for Audio_MAL_DeInit
    codec.o(i.EVAL_AUDIO_DeInit) refers to codec.o(i.Codec_DeInit) for Codec_DeInit
    codec.o(i.EVAL_AUDIO_Init) refers to codec.o(i.Codec_Init) for Codec_Init
    codec.o(i.EVAL_AUDIO_Init) refers to codec.o(i.Audio_MAL_Init) for Audio_MAL_Init
    codec.o(i.EVAL_AUDIO_Mute) refers to codec.o(i.Codec_Mute) for Codec_Mute
    codec.o(i.EVAL_AUDIO_PauseResume) refers to codec.o(i.Codec_PauseResume) for Codec_PauseResume
    codec.o(i.EVAL_AUDIO_PauseResume) refers to codec.o(i.Audio_MAL_PauseResume) for Audio_MAL_PauseResume
    codec.o(i.EVAL_AUDIO_Play) refers to codec.o(i.Codec_Play) for Codec_Play
    codec.o(i.EVAL_AUDIO_Play) refers to codec.o(i.Audio_MAL_Play) for Audio_MAL_Play
    codec.o(i.EVAL_AUDIO_Play) refers to codec.o(.data) for AudioTotalSize
    codec.o(i.EVAL_AUDIO_SetAudioInterface) refers to codec.o(.data) for CurrAudioInterface
    codec.o(i.EVAL_AUDIO_Stop) refers to codec.o(i.Codec_Stop) for Codec_Stop
    codec.o(i.EVAL_AUDIO_Stop) refers to codec.o(i.Audio_MAL_Stop) for Audio_MAL_Stop
    codec.o(i.EVAL_AUDIO_Stop) refers to codec.o(.data) for AudioTotalSize
    codec.o(i.EVAL_AUDIO_VolumeCtl) refers to codec.o(i.Codec_VolumeCtrl) for Codec_VolumeCtrl
    codec.o(i.SPI3_IRQHandler) refers to stm32f4xx_spi.o(i.SPI_I2S_GetFlagStatus) for SPI_I2S_GetFlagStatus
    codec.o(i.SPI3_IRQHandler) refers to mp3play.o(i.EVAL_AUDIO_GetSampleCallBack) for EVAL_AUDIO_GetSampleCallBack
    codec.o(i.SPI3_IRQHandler) refers to stm32f4xx_dac.o(i.DAC_SetChannel1Data) for DAC_SetChannel1Data
    codec.o(i.SPI3_IRQHandler) refers to stm32f4xx_spi.o(i.SPI_I2S_SendData) for SPI_I2S_SendData
    codec.o(i.SPI3_IRQHandler) refers to codec.o(.data) for CurrAudioInterface
    delay.o(i.SysTick_Handler) refers to os_core.o(i.OSIntEnter) for OSIntEnter
    delay.o(i.SysTick_Handler) refers to os_core.o(i.OSTimeTick) for OSTimeTick
    delay.o(i.SysTick_Handler) refers to os_core.o(i.OSIntExit) for OSIntExit
    delay.o(i.delay_init) refers to misc.o(i.SysTick_CLKSourceConfig) for SysTick_CLKSourceConfig
    delay.o(i.delay_init) refers to delay.o(.data) for fac_us
    delay.o(i.delay_ms) refers to os_time.o(i.OSTimeDly) for OSTimeDly
    delay.o(i.delay_ms) refers to delay.o(i.delay_us) for delay_us
    delay.o(i.delay_ms) refers to os_core.o(.data) for OSRunning
    delay.o(i.delay_ms) refers to delay.o(.data) for fac_ms
    delay.o(i.delay_us) refers to os_core.o(i.OSSchedLock) for OSSchedLock
    delay.o(i.delay_us) refers to os_core.o(i.OSSchedUnlock) for OSSchedUnlock
    delay.o(i.delay_us) refers to delay.o(.data) for fac_us
    usart.o(i.USART3_IRQHandler) refers to os_core.o(i.OSIntEnter) for OSIntEnter
    usart.o(i.USART3_IRQHandler) refers to stm32f4xx_usart.o(i.USART_GetITStatus) for USART_GetITStatus
    usart.o(i.USART3_IRQHandler) refers to stm32f4xx_usart.o(i.USART_ReceiveData) for USART_ReceiveData
    usart.o(i.USART3_IRQHandler) refers to strcpy.o(.text) for strcpy
    usart.o(i.USART3_IRQHandler) refers to strncpy.o(.text) for strncpy
    usart.o(i.USART3_IRQHandler) refers to usart.o(i.usart_ctrl_music) for usart_ctrl_music
    usart.o(i.USART3_IRQHandler) refers to os_core.o(i.OSIntExit) for OSIntExit
    usart.o(i.USART3_IRQHandler) refers to usart.o(.data) for USART_RX_STA
    usart.o(i.USART3_IRQHandler) refers to usart.o(.bss) for USART_RX_BUF
    usart.o(i.uart_init) refers to stm32f4xx_rcc.o(i.RCC_AHB1PeriphClockCmd) for RCC_AHB1PeriphClockCmd
    usart.o(i.uart_init) refers to stm32f4xx_rcc.o(i.RCC_APB1PeriphClockCmd) for RCC_APB1PeriphClockCmd
    usart.o(i.uart_init) refers to stm32f4xx_gpio.o(i.GPIO_PinAFConfig) for GPIO_PinAFConfig
    usart.o(i.uart_init) refers to stm32f4xx_gpio.o(i.GPIO_Init) for GPIO_Init
    usart.o(i.uart_init) refers to stm32f4xx_usart.o(i.USART_Init) for USART_Init
    usart.o(i.uart_init) refers to stm32f4xx_usart.o(i.USART_Cmd) for USART_Cmd
    usart.o(i.uart_init) refers to stm32f4xx_usart.o(i.USART_ClearFlag) for USART_ClearFlag
    usart.o(i.uart_init) refers to stm32f4xx_usart.o(i.USART_ITConfig) for USART_ITConfig
    usart.o(i.uart_init) refers to misc.o(i.NVIC_Init) for NVIC_Init
    usart.o(i.usart_ctrl_music) refers to strncmp.o(.text) for strncmp
    usart.o(i.usart_ctrl_music) refers to delay.o(i.delay_ms) for delay_ms
    usart.o(i.usart_ctrl_music) refers to usart.o(.bss) for USART_RX_TEMP
    bitstream.o(i.xmp3_GetBits) refers to bitstream.o(i.RefillBitstreamCache) for RefillBitstreamCache
    bitstream.o(i.xmp3_UnpackFrameHeader) refers to mp3tabs.o(.constdata) for xmp3_sfBandTable
    bitstream.o(i.xmp3_UnpackSideInfo) refers to bitstream.o(i.xmp3_SetBitstreamPointer) for xmp3_SetBitstreamPointer
    bitstream.o(i.xmp3_UnpackSideInfo) refers to bitstream.o(i.xmp3_GetBits) for xmp3_GetBits
    buffers.o(i.xmp3_AllocateBuffers) refers to buffers.o(i.ClearBuffer) for ClearBuffer
    buffers.o(i.xmp3_AllocateBuffers) refers to buffers.o(.bss) for mp3DecInfo
    dct32.o(i.xmp3_FDCT32) refers to asmmisc.o(.text) for xmp3_MULSHIFT32
    dct32.o(i.xmp3_FDCT32) refers to dct32.o(.constdata) for dcttab
    dequant.o(i.xmp3_Dequantize) refers to dqchan.o(i.xmp3_DequantChannel) for xmp3_DequantChannel
    dequant.o(i.xmp3_Dequantize) refers to stproc.o(i.xmp3_MidSideProc) for xmp3_MidSideProc
    dequant.o(i.xmp3_Dequantize) refers to stproc.o(i.xmp3_IntensityProcMPEG1) for xmp3_IntensityProcMPEG1
    dequant.o(i.xmp3_Dequantize) refers to stproc.o(i.xmp3_IntensityProcMPEG2) for xmp3_IntensityProcMPEG2
    dequant.o(i.xmp3_Dequantize) refers to dequant.o(i.CLZ) for CLZ
    dqchan.o(i.DequantBlock) refers to asmmisc.o(.text) for xmp3_MULSHIFT32
    dqchan.o(i.DequantBlock) refers to dqchan.o(.constdata) for pow43_14
    dqchan.o(i.xmp3_DequantChannel) refers to dqchan.o(i.DequantBlock) for DequantBlock
    dqchan.o(i.xmp3_DequantChannel) refers to dqchan.o(i.CLZ) for CLZ
    dqchan.o(i.xmp3_DequantChannel) refers to dqchan.o(.constdata) for preTab
    huffman.o(i.DecodeHuffmanPairs) refers to hufftabs.o(.constdata) for xmp3_huffTabOffset
    huffman.o(i.DecodeHuffmanQuads) refers to hufftabs.o(.constdata) for xmp3_quadTabOffset
    huffman.o(i.xmp3_DecodeHuffman) refers to huffman.o(i.DecodeHuffmanPairs) for DecodeHuffmanPairs
    huffman.o(i.xmp3_DecodeHuffman) refers to huffman.o(i.DecodeHuffmanQuads) for DecodeHuffmanQuads
    imdct.o(i.AntiAlias) refers to asmmisc.o(.text) for xmp3_MULSHIFT32
    imdct.o(i.AntiAlias) refers to trigtabs.o(.constdata) for xmp3_csa
    imdct.o(i.FreqInvertRescale) refers to asmmisc.o(.text) for xmp3_FASTABS
    imdct.o(i.HybridTransform) refers to imdct.o(i.IMDCT36) for IMDCT36
    imdct.o(i.HybridTransform) refers to imdct.o(i.IMDCT12x3) for IMDCT12x3
    imdct.o(i.HybridTransform) refers to imdct.o(i.WinPrevious) for WinPrevious
    imdct.o(i.HybridTransform) refers to asmmisc.o(.text) for xmp3_FASTABS
    imdct.o(i.IMDCT12x3) refers to imdct.o(i.imdct12) for imdct12
    imdct.o(i.IMDCT12x3) refers to imdct.o(i.WinPrevious) for WinPrevious
    imdct.o(i.IMDCT12x3) refers to asmmisc.o(.text) for xmp3_FASTABS
    imdct.o(i.IMDCT12x3) refers to imdct.o(i.FreqInvertRescale) for FreqInvertRescale
    imdct.o(i.IMDCT12x3) refers to trigtabs.o(.constdata) for xmp3_imdctWin
    imdct.o(i.IMDCT36) refers to imdct.o(i.idct9) for idct9
    imdct.o(i.IMDCT36) refers to asmmisc.o(.text) for xmp3_MULSHIFT32
    imdct.o(i.IMDCT36) refers to imdct.o(i.WinPrevious) for WinPrevious
    imdct.o(i.IMDCT36) refers to imdct.o(i.FreqInvertRescale) for FreqInvertRescale
    imdct.o(i.IMDCT36) refers to imdct.o(.constdata) for c18
    imdct.o(i.IMDCT36) refers to trigtabs.o(.constdata) for xmp3_imdctWin
    imdct.o(i.WinPrevious) refers to asmmisc.o(.text) for xmp3_MULSHIFT32
    imdct.o(i.WinPrevious) refers to trigtabs.o(.constdata) for xmp3_imdctWin
    imdct.o(i.idct9) refers to asmmisc.o(.text) for xmp3_MULSHIFT32
    imdct.o(i.imdct12) refers to asmmisc.o(.text) for xmp3_MULSHIFT32
    imdct.o(i.imdct12) refers to imdct.o(.constdata) for c6
    imdct.o(i.xmp3_IMDCT) refers to imdct.o(i.AntiAlias) for AntiAlias
    imdct.o(i.xmp3_IMDCT) refers to imdct.o(i.HybridTransform) for HybridTransform
    mp3dec.o(i.MP3Decode) refers to bitstream.o(i.xmp3_UnpackFrameHeader) for xmp3_UnpackFrameHeader
    mp3dec.o(i.MP3Decode) refers to bitstream.o(i.xmp3_UnpackSideInfo) for xmp3_UnpackSideInfo
    mp3dec.o(i.MP3Decode) refers to mp3dec.o(i.MP3ClearBadFrame) for MP3ClearBadFrame
    mp3dec.o(i.MP3Decode) refers to mp3dec.o(i.MP3FindFreeSync) for MP3FindFreeSync
    mp3dec.o(i.MP3Decode) refers to bitstream.o(i.xmp3_CheckPadBit) for xmp3_CheckPadBit
    mp3dec.o(i.MP3Decode) refers to memmovea.o(.text) for __aeabi_memmove
    mp3dec.o(i.MP3Decode) refers to scalfact.o(i.xmp3_UnpackScaleFactors) for xmp3_UnpackScaleFactors
    mp3dec.o(i.MP3Decode) refers to huffman.o(i.xmp3_DecodeHuffman) for xmp3_DecodeHuffman
    mp3dec.o(i.MP3Decode) refers to dequant.o(i.xmp3_Dequantize) for xmp3_Dequantize
    mp3dec.o(i.MP3Decode) refers to imdct.o(i.xmp3_IMDCT) for xmp3_IMDCT
    mp3dec.o(i.MP3Decode) refers to subband.o(i.xmp3_Subband) for xmp3_Subband
    mp3dec.o(i.MP3FindFreeSync) refers to mp3dec.o(i.MP3FindSyncWord) for MP3FindSyncWord
    mp3dec.o(i.MP3FreeDecoder) refers to buffers.o(i.xmp3_FreeBuffers) for xmp3_FreeBuffers
    mp3dec.o(i.MP3GetLastFrameInfo) refers to mp3tabs.o(.constdata) for xmp3_samplesPerFrameTab
    mp3dec.o(i.MP3GetNextFrameInfo) refers to bitstream.o(i.xmp3_UnpackFrameHeader) for xmp3_UnpackFrameHeader
    mp3dec.o(i.MP3GetNextFrameInfo) refers to mp3dec.o(i.MP3GetLastFrameInfo) for MP3GetLastFrameInfo
    mp3dec.o(i.MP3InitDecoder) refers to buffers.o(i.xmp3_AllocateBuffers) for xmp3_AllocateBuffers
    scalfact.o(i.UnpackSFMPEG1) refers to bitstream.o(i.xmp3_GetBits) for xmp3_GetBits
    scalfact.o(i.UnpackSFMPEG1) refers to scalfact.o(.constdata) for SFLenTab
    scalfact.o(i.UnpackSFMPEG2) refers to bitstream.o(i.xmp3_GetBits) for xmp3_GetBits
    scalfact.o(i.UnpackSFMPEG2) refers to scalfact.o(.constdata) for NRTab
    scalfact.o(i.xmp3_UnpackScaleFactors) refers to bitstream.o(i.xmp3_SetBitstreamPointer) for xmp3_SetBitstreamPointer
    scalfact.o(i.xmp3_UnpackScaleFactors) refers to bitstream.o(i.xmp3_GetBits) for xmp3_GetBits
    scalfact.o(i.xmp3_UnpackScaleFactors) refers to scalfact.o(i.UnpackSFMPEG1) for UnpackSFMPEG1
    scalfact.o(i.xmp3_UnpackScaleFactors) refers to scalfact.o(i.UnpackSFMPEG2) for UnpackSFMPEG2
    scalfact.o(i.xmp3_UnpackScaleFactors) refers to bitstream.o(i.xmp3_CalcBitsUsed) for xmp3_CalcBitsUsed
    stproc.o(i.xmp3_IntensityProcMPEG1) refers to asmmisc.o(.text) for xmp3_MULSHIFT32
    stproc.o(i.xmp3_IntensityProcMPEG1) refers to trigtabs.o(.constdata) for xmp3_ISFMpeg1
    stproc.o(i.xmp3_IntensityProcMPEG2) refers to asmmisc.o(.text) for xmp3_MULSHIFT32
    stproc.o(i.xmp3_IntensityProcMPEG2) refers to trigtabs.o(.constdata) for xmp3_ISFMpeg2
    stproc.o(i.xmp3_MidSideProc) refers to asmmisc.o(.text) for xmp3_FASTABS
    subband.o(i.xmp3_Subband) refers to dct32.o(i.xmp3_FDCT32) for xmp3_FDCT32
    subband.o(i.xmp3_Subband) refers to asmpoly_thumb2.o(.text) for xmp3_PolyphaseStereo
    subband.o(i.xmp3_Subband) refers to trigtabs.o(.constdata) for xmp3_polyCoef
    mp3play.o(i.AUDIO_TransferComplete) refers to mp3play.o(.data) for XferCplt
    mp3play.o(i.Delay) refers to mp3play.o(.data) for TimingDelay
    mp3play.o(i.EVAL_AUDIO_TransferComplete_CallBack) refers to mp3play.o(.data) for XferCplt
    mp3play.o(i.Mp3PlayerInit) refers to codec.o(i.EVAL_AUDIO_SetAudioInterface) for EVAL_AUDIO_SetAudioInterface
    mp3play.o(i.Mp3PlayerInit) refers to codec.o(i.EVAL_AUDIO_Init) for EVAL_AUDIO_Init
    mp3play.o(i.Mp3PlayerInit) refers to mp3play.o(.data) for volume
    mp3play.o(i.Mp3PlayerPauseResume) refers to codec.o(i.EVAL_AUDIO_PauseResume) for EVAL_AUDIO_PauseResume
    mp3play.o(i.Mp3PlayerStart) refers to rand.o(.text) for srand
    mp3play.o(i.Mp3PlayerStart) refers to mp3dec.o(i.MP3InitDecoder) for MP3InitDecoder
    mp3play.o(i.Mp3PlayerStart) refers to ff.o(i.f_opendir) for f_opendir
    mp3play.o(i.Mp3PlayerStart) refers to lcd.o(i.LCD_Clear) for LCD_Clear
    mp3play.o(i.Mp3PlayerStart) refers to lcd.o(i.LCD_ShowString) for LCD_ShowString
    mp3play.o(i.Mp3PlayerStart) refers to malloc.o(i.malloc) for malloc
    mp3play.o(i.Mp3PlayerStart) refers to ff.o(i.f_readdir) for f_readdir
    mp3play.o(i.Mp3PlayerStart) refers to strstr.o(.text) for strstr
    mp3play.o(i.Mp3PlayerStart) refers to lcd.o(i.LCD_Fill) for LCD_Fill
    mp3play.o(i.Mp3PlayerStart) refers to ff.o(i.dir_seek) for dir_seek
    mp3play.o(i.Mp3PlayerStart) refers to strcpy.o(.text) for strcpy
    mp3play.o(i.Mp3PlayerStart) refers to strcat.o(.text) for strcat
    mp3play.o(i.Mp3PlayerStart) refers to lcd.o(i.Show_Str) for Show_Str
    mp3play.o(i.Mp3PlayerStart) refers to lcd.o(i.LCD_ShowNum) for LCD_ShowNum
    mp3play.o(i.Mp3PlayerStart) refers to main.o(i.reset_time) for reset_time
    mp3play.o(i.Mp3PlayerStart) refers to ff.o(i.f_open) for f_open
    mp3play.o(i.Mp3PlayerStart) refers to ff.o(i.f_read) for f_read
    mp3play.o(i.Mp3PlayerStart) refers to mp3play.o(i.Mp3PlayerInit) for Mp3PlayerInit
    mp3play.o(i.Mp3PlayerStart) refers to mp3dec.o(i.MP3FindSyncWord) for MP3FindSyncWord
    mp3play.o(i.Mp3PlayerStart) refers to memmovea.o(.text) for __aeabi_memmove
    mp3play.o(i.Mp3PlayerStart) refers to memseta.o(.text) for __aeabi_memclr
    mp3play.o(i.Mp3PlayerStart) refers to mp3dec.o(i.MP3GetLastFrameInfo) for MP3GetLastFrameInfo
    mp3play.o(i.Mp3PlayerStart) refers to codec.o(i.Audio_MAL_Play) for Audio_MAL_Play
    mp3play.o(i.Mp3PlayerStart) refers to mp3dec.o(i.MP3Decode) for MP3Decode
    mp3play.o(i.Mp3PlayerStart) refers to key.o(i.KEY_Scan) for KEY_Scan
    mp3play.o(i.Mp3PlayerStart) refers to mp3play.o(i.music_ctrl) for music_ctrl
    mp3play.o(i.Mp3PlayerStart) refers to mp3play.o(.data) for hMP3Decoder
    mp3play.o(i.Mp3PlayerStart) refers to exfuns.o(.bss) for dir
    mp3play.o(i.Mp3PlayerStart) refers to usbh_usr.o(.bss) for fno
    mp3play.o(i.Mp3PlayerStart) refers to mp3play.o(.bss) for readBuf
    mp3play.o(i.Mp3PlayerStop) refers to codec.o(i.EVAL_AUDIO_Stop) for EVAL_AUDIO_Stop
    mp3play.o(i.Mp3Player_CallBack) refers to codec.o(i.EVAL_AUDIO_Stop) for EVAL_AUDIO_Stop
    mp3play.o(i.Mp3Player_CallBack) refers to stm32f4xx_tim.o(i.TIM_ITConfig) for TIM_ITConfig
    mp3play.o(i.Mp3Player_CallBack) refers to ff.o(i.f_mount) for f_mount
    mp3play.o(i.Mp3Player_CallBack) refers to main.o(.data) for RepeatState
    mp3play.o(i.Mp3Player_CallBack) refers to mp3play.o(.data) for AudioPlayStart
    mp3play.o(i.Mp3Player_CallBack) refers to stm32f4xx_it.o(.data) for LED_Toggle
    mp3play.o(i.Mp3playerCtrlVolume) refers to codec.o(i.EVAL_AUDIO_VolumeCtl) for EVAL_AUDIO_VolumeCtl
    mp3play.o(i.TimingDelay_Decrement) refers to mp3play.o(.data) for TimingDelay
    mp3play.o(i.get_file_curindex) refers to mp3play.o(.data) for music_curindex
    mp3play.o(i.get_volume) refers to mp3play.o(.data) for volume
    mp3play.o(i.music_ctrl) refers to mp3play.o(i.Mp3playerCtrlVolume) for Mp3playerCtrlVolume
    mp3play.o(i.music_ctrl) refers to lcd.o(i.LCD_ShowNum) for LCD_ShowNum
    mp3play.o(i.music_ctrl) refers to lcd.o(i.LCD_Fill) for LCD_Fill
    mp3play.o(i.music_ctrl) refers to lcd.o(i.LCD_ShowString) for LCD_ShowString
    mp3play.o(i.music_ctrl) refers to mp3play.o(.data) for volume
    usb_core.o(i.USB_OTG_CoreInit) refers to usb_core.o(i.USB_OTG_CoreReset) for USB_OTG_CoreReset
    usb_core.o(i.USB_OTG_CoreInit) refers to usb_bsp.o(i.USB_OTG_BSP_mDelay) for USB_OTG_BSP_mDelay
    usb_core.o(i.USB_OTG_CoreInitHost) refers to usb_bsp.o(i.USB_OTG_BSP_ConfigVBUS) for USB_OTG_BSP_ConfigVBUS
    usb_core.o(i.USB_OTG_CoreInitHost) refers to usb_core.o(i.USB_OTG_InitFSLSPClkSel) for USB_OTG_InitFSLSPClkSel
    usb_core.o(i.USB_OTG_CoreInitHost) refers to usb_core.o(i.USB_OTG_FlushTxFifo) for USB_OTG_FlushTxFifo
    usb_core.o(i.USB_OTG_CoreInitHost) refers to usb_core.o(i.USB_OTG_FlushRxFifo) for USB_OTG_FlushRxFifo
    usb_core.o(i.USB_OTG_CoreInitHost) refers to usb_core.o(i.USB_OTG_DriveVbus) for USB_OTG_DriveVbus
    usb_core.o(i.USB_OTG_CoreInitHost) refers to usb_core.o(i.USB_OTG_EnableHostInt) for USB_OTG_EnableHostInt
    usb_core.o(i.USB_OTG_CoreReset) refers to usb_bsp.o(i.USB_OTG_BSP_uDelay) for USB_OTG_BSP_uDelay
    usb_core.o(i.USB_OTG_DriveVbus) refers to usb_bsp.o(i.USB_OTG_BSP_DriveVBUS) for USB_OTG_BSP_DriveVBUS
    usb_core.o(i.USB_OTG_DriveVbus) refers to usb_core.o(i.USB_OTG_ReadHPRT0) for USB_OTG_ReadHPRT0
    usb_core.o(i.USB_OTG_DriveVbus) refers to usb_bsp.o(i.USB_OTG_BSP_mDelay) for USB_OTG_BSP_mDelay
    usb_core.o(i.USB_OTG_EnableHostInt) refers to usb_core.o(i.USB_OTG_EnableCommonInt) for USB_OTG_EnableCommonInt
    usb_core.o(i.USB_OTG_FlushRxFifo) refers to usb_bsp.o(i.USB_OTG_BSP_uDelay) for USB_OTG_BSP_uDelay
    usb_core.o(i.USB_OTG_FlushTxFifo) refers to usb_bsp.o(i.USB_OTG_BSP_uDelay) for USB_OTG_BSP_uDelay
    usb_core.o(i.USB_OTG_HC_StartXfer) refers to usb_core.o(i.USB_OTG_IsEvenFrame) for USB_OTG_IsEvenFrame
    usb_core.o(i.USB_OTG_HC_StartXfer) refers to usb_core.o(i.USB_OTG_WritePacket) for USB_OTG_WritePacket
    usb_core.o(i.USB_OTG_IsDeviceMode) refers to usb_core.o(i.USB_OTG_GetMode) for USB_OTG_GetMode
    usb_core.o(i.USB_OTG_IsHostMode) refers to usb_core.o(i.USB_OTG_GetMode) for USB_OTG_GetMode
    usb_core.o(i.USB_OTG_ResetPort) refers to usb_core.o(i.USB_OTG_ReadHPRT0) for USB_OTG_ReadHPRT0
    usb_core.o(i.USB_OTG_ResetPort) refers to usb_bsp.o(i.USB_OTG_BSP_mDelay) for USB_OTG_BSP_mDelay
    usb_core.o(i.USB_OTG_SetCurrentMode) refers to usb_bsp.o(i.USB_OTG_BSP_mDelay) for USB_OTG_BSP_mDelay
    usb_core.o(i.USB_OTG_StopHost) refers to usb_core.o(i.USB_OTG_FlushRxFifo) for USB_OTG_FlushRxFifo
    usb_core.o(i.USB_OTG_StopHost) refers to usb_core.o(i.USB_OTG_FlushTxFifo) for USB_OTG_FlushTxFifo
    usb_hcd.o(i.HCD_HC_Init) refers to usb_core.o(i.USB_OTG_HC_Init) for USB_OTG_HC_Init
    usb_hcd.o(i.HCD_Init) refers to usb_core.o(i.USB_OTG_SelectCore) for USB_OTG_SelectCore
    usb_hcd.o(i.HCD_Init) refers to usb_core.o(i.USB_OTG_DisableGlobalInt) for USB_OTG_DisableGlobalInt
    usb_hcd.o(i.HCD_Init) refers to usb_core.o(i.USB_OTG_CoreInit) for USB_OTG_CoreInit
    usb_hcd.o(i.HCD_Init) refers to usb_core.o(i.USB_OTG_SetCurrentMode) for USB_OTG_SetCurrentMode
    usb_hcd.o(i.HCD_Init) refers to usb_core.o(i.USB_OTG_CoreInitHost) for USB_OTG_CoreInitHost
    usb_hcd.o(i.HCD_Init) refers to usb_core.o(i.USB_OTG_EnableGlobalInt) for USB_OTG_EnableGlobalInt
    usb_hcd.o(i.HCD_ResetPort) refers to usb_core.o(i.USB_OTG_ResetPort) for USB_OTG_ResetPort
    usb_hcd.o(i.HCD_SubmitRequest) refers to usb_core.o(i.USB_OTG_HC_StartXfer) for USB_OTG_HC_StartXfer
    usb_hcd_int.o(i.USBH_OTG_ISR_Handler) refers to usb_core.o(i.USB_OTG_IsHostMode) for USB_OTG_IsHostMode
    usb_hcd_int.o(i.USBH_OTG_ISR_Handler) refers to usb_core.o(i.USB_OTG_ReadCoreItr) for USB_OTG_ReadCoreItr
    usb_hcd_int.o(i.USBH_OTG_ISR_Handler) refers to usb_hcd_int.o(i.USB_OTG_USBH_handle_sof_ISR) for USB_OTG_USBH_handle_sof_ISR
    usb_hcd_int.o(i.USBH_OTG_ISR_Handler) refers to usb_hcd_int.o(i.USB_OTG_USBH_handle_rx_qlvl_ISR) for USB_OTG_USBH_handle_rx_qlvl_ISR
    usb_hcd_int.o(i.USBH_OTG_ISR_Handler) refers to usb_hcd_int.o(i.USB_OTG_USBH_handle_nptxfempty_ISR) for USB_OTG_USBH_handle_nptxfempty_ISR
    usb_hcd_int.o(i.USBH_OTG_ISR_Handler) refers to usb_hcd_int.o(i.USB_OTG_USBH_handle_ptxfempty_ISR) for USB_OTG_USBH_handle_ptxfempty_ISR
    usb_hcd_int.o(i.USBH_OTG_ISR_Handler) refers to usb_hcd_int.o(i.USB_OTG_USBH_handle_hc_ISR) for USB_OTG_USBH_handle_hc_ISR
    usb_hcd_int.o(i.USBH_OTG_ISR_Handler) refers to usb_hcd_int.o(i.USB_OTG_USBH_handle_port_ISR) for USB_OTG_USBH_handle_port_ISR
    usb_hcd_int.o(i.USBH_OTG_ISR_Handler) refers to usb_hcd_int.o(i.USB_OTG_USBH_handle_Disconnect_ISR) for USB_OTG_USBH_handle_Disconnect_ISR
    usb_hcd_int.o(i.USBH_OTG_ISR_Handler) refers to usb_hcd_int.o(i.USB_OTG_USBH_handle_IncompletePeriodicXfer_ISR) for USB_OTG_USBH_handle_IncompletePeriodicXfer_ISR
    usb_hcd_int.o(i.USB_OTG_USBH_handle_hc_ISR) refers to usb_core.o(i.USB_OTG_ReadHostAllChannels_intr) for USB_OTG_ReadHostAllChannels_intr
    usb_hcd_int.o(i.USB_OTG_USBH_handle_hc_ISR) refers to usb_hcd_int.o(i.USB_OTG_USBH_handle_hc_n_In_ISR) for USB_OTG_USBH_handle_hc_n_In_ISR
    usb_hcd_int.o(i.USB_OTG_USBH_handle_hc_ISR) refers to usb_hcd_int.o(i.USB_OTG_USBH_handle_hc_n_Out_ISR) for USB_OTG_USBH_handle_hc_n_Out_ISR
    usb_hcd_int.o(i.USB_OTG_USBH_handle_hc_n_In_ISR) refers to usb_core.o(i.USB_OTG_HC_Halt) for USB_OTG_HC_Halt
    usb_hcd_int.o(i.USB_OTG_USBH_handle_hc_n_Out_ISR) refers to usb_core.o(i.USB_OTG_HC_Halt) for USB_OTG_HC_Halt
    usb_hcd_int.o(i.USB_OTG_USBH_handle_hc_n_Out_ISR) refers to usb_core.o(i.USB_OTG_HC_DoPing) for USB_OTG_HC_DoPing
    usb_hcd_int.o(i.USB_OTG_USBH_handle_nptxfempty_ISR) refers to usb_core.o(i.USB_OTG_WritePacket) for USB_OTG_WritePacket
    usb_hcd_int.o(i.USB_OTG_USBH_handle_port_ISR) refers to usb_core.o(i.USB_OTG_InitFSLSPClkSel) for USB_OTG_InitFSLSPClkSel
    usb_hcd_int.o(i.USB_OTG_USBH_handle_port_ISR) refers to usb_core.o(i.USB_OTG_ResetPort) for USB_OTG_ResetPort
    usb_hcd_int.o(i.USB_OTG_USBH_handle_ptxfempty_ISR) refers to usb_core.o(i.USB_OTG_WritePacket) for USB_OTG_WritePacket
    usb_hcd_int.o(i.USB_OTG_USBH_handle_rx_qlvl_ISR) refers to usb_core.o(i.USB_OTG_ReadPacket) for USB_OTG_ReadPacket
    usbh_core.o(i.USBH_DeInit) refers to usbh_hcs.o(i.USBH_Free_Channel) for USBH_Free_Channel
    usbh_core.o(i.USBH_HandleControl) refers to usbh_ioreq.o(i.USBH_CtlSendSetup) for USBH_CtlSendSetup
    usbh_core.o(i.USBH_HandleControl) refers to usb_hcd.o(i.HCD_GetURB_State) for HCD_GetURB_State
    usbh_core.o(i.USBH_HandleControl) refers to usb_hcd.o(i.HCD_GetCurrentFrame) for HCD_GetCurrentFrame
    usbh_core.o(i.USBH_HandleControl) refers to usbh_ioreq.o(i.USBH_CtlReceiveData) for USBH_CtlReceiveData
    usbh_core.o(i.USBH_HandleControl) refers to usbh_ioreq.o(i.USBH_CtlSendData) for USBH_CtlSendData
    usbh_core.o(i.USBH_HandleControl) refers to usbh_core.o(.data) for timeout
    usbh_core.o(i.USBH_HandleEnum) refers to usbh_stdreq.o(i.USBH_Get_DevDesc) for USBH_Get_DevDesc
    usbh_core.o(i.USBH_HandleEnum) refers to usb_hcd.o(i.HCD_ResetPort) for HCD_ResetPort
    usbh_core.o(i.USBH_HandleEnum) refers to usbh_hcs.o(i.USBH_Modify_Channel) for USBH_Modify_Channel
    usbh_core.o(i.USBH_HandleEnum) refers to usbh_stdreq.o(i.USBH_SetAddress) for USBH_SetAddress
    usbh_core.o(i.USBH_HandleEnum) refers to usbh_stdreq.o(i.USBH_Get_CfgDesc) for USBH_Get_CfgDesc
    usbh_core.o(i.USBH_HandleEnum) refers to usbh_stdreq.o(i.USBH_Get_StringDesc) for USBH_Get_StringDesc
    usbh_core.o(i.USBH_HandleEnum) refers to usbh_stdreq.o(i.USBH_SetCfg) for USBH_SetCfg
    usbh_core.o(i.USBH_Init) refers to usb_bsp.o(i.USB_OTG_BSP_Init) for USB_OTG_BSP_Init
    usbh_core.o(i.USBH_Init) refers to usb_bsp.o(i.USB_OTG_BSP_ConfigVBUS) for USB_OTG_BSP_ConfigVBUS
    usbh_core.o(i.USBH_Init) refers to usbh_core.o(i.USBH_DeInit) for USBH_DeInit
    usbh_core.o(i.USBH_Init) refers to usb_hcd.o(i.HCD_Init) for HCD_Init
    usbh_core.o(i.USBH_Init) refers to usb_bsp.o(i.USB_OTG_BSP_EnableInterrupt) for USB_OTG_BSP_EnableInterrupt
    usbh_core.o(i.USBH_Init) refers to usbh_core.o(.data) for USBH_DeviceConnStatus_cb
    usbh_core.o(i.USBH_Process) refers to usb_hcd.o(i.HCD_ResetPort) for HCD_ResetPort
    usbh_core.o(i.USBH_Process) refers to usb_hcd.o(i.HCD_IsDeviceConnected) for HCD_IsDeviceConnected
    usbh_core.o(i.USBH_Process) refers to usbh_hcs.o(i.USBH_DeAllocate_AllChannel) for USBH_DeAllocate_AllChannel
    usbh_core.o(i.USBH_Process) refers to usbh_hcs.o(i.USBH_Alloc_Channel) for USBH_Alloc_Channel
    usbh_core.o(i.USBH_Process) refers to usb_hcd.o(i.HCD_GetCurrentSpeed) for HCD_GetCurrentSpeed
    usbh_core.o(i.USBH_Process) refers to usbh_hcs.o(i.USBH_Open_Channel) for USBH_Open_Channel
    usbh_core.o(i.USBH_Process) refers to usbh_core.o(i.USBH_HandleEnum) for USBH_HandleEnum
    usbh_core.o(i.USBH_Process) refers to usbh_core.o(i.USBH_ErrorHandle) for USBH_ErrorHandle
    usbh_core.o(i.USBH_Process) refers to usbh_core.o(i.USBH_HandleControl) for USBH_HandleControl
    usbh_core.o(i.USBH_Process) refers to usbh_core.o(i.USBH_DeInit) for USBH_DeInit
    usbh_core.o(.data) refers to usbh_core.o(i.USBH_Disconnect) for USBH_Disconnect
    usbh_core.o(.data) refers to usbh_core.o(i.USBH_Connect) for USBH_Connect
    usbh_hcs.o(i.USBH_Alloc_Channel) refers to usbh_hcs.o(i.USBH_GetFreeChannel) for USBH_GetFreeChannel
    usbh_hcs.o(i.USBH_Modify_Channel) refers to usb_core.o(i.USB_OTG_HC_Init) for USB_OTG_HC_Init
    usbh_hcs.o(i.USBH_Open_Channel) refers to usb_core.o(i.USB_OTG_HC_Init) for USB_OTG_HC_Init
    usbh_ioreq.o(i.USBH_BulkReceiveData) refers to usb_hcd.o(i.HCD_SubmitRequest) for HCD_SubmitRequest
    usbh_ioreq.o(i.USBH_BulkSendData) refers to usb_hcd.o(i.HCD_SubmitRequest) for HCD_SubmitRequest
    usbh_ioreq.o(i.USBH_CtlReceiveData) refers to usb_hcd.o(i.HCD_SubmitRequest) for HCD_SubmitRequest
    usbh_ioreq.o(i.USBH_CtlReq) refers to usb_hcd.o(i.HCD_GetURB_State) for HCD_GetURB_State
    usbh_ioreq.o(i.USBH_CtlReq) refers to usbh_ioreq.o(i.USBH_SubmitSetupRequest) for USBH_SubmitSetupRequest
    usbh_ioreq.o(i.USBH_CtlSendData) refers to usb_hcd.o(i.HCD_SubmitRequest) for HCD_SubmitRequest
    usbh_ioreq.o(i.USBH_CtlSendSetup) refers to usb_hcd.o(i.HCD_SubmitRequest) for HCD_SubmitRequest
    usbh_ioreq.o(i.USBH_InterruptReceiveData) refers to usb_hcd.o(i.HCD_SubmitRequest) for HCD_SubmitRequest
    usbh_ioreq.o(i.USBH_InterruptSendData) refers to usb_hcd.o(i.HCD_SubmitRequest) for HCD_SubmitRequest
    usbh_stdreq.o(i.USBH_ClrFeature) refers to usbh_ioreq.o(i.USBH_CtlReq) for USBH_CtlReq
    usbh_stdreq.o(i.USBH_GetDescriptor) refers to usbh_ioreq.o(i.USBH_CtlReq) for USBH_CtlReq
    usbh_stdreq.o(i.USBH_Get_CfgDesc) refers to usbh_stdreq.o(i.USBH_GetDescriptor) for USBH_GetDescriptor
    usbh_stdreq.o(i.USBH_Get_CfgDesc) refers to usbh_stdreq.o(i.USBH_ParseCfgDesc) for USBH_ParseCfgDesc
    usbh_stdreq.o(i.USBH_Get_DevDesc) refers to usbh_stdreq.o(i.USBH_GetDescriptor) for USBH_GetDescriptor
    usbh_stdreq.o(i.USBH_Get_DevDesc) refers to usbh_stdreq.o(i.USBH_ParseDevDesc) for USBH_ParseDevDesc
    usbh_stdreq.o(i.USBH_Get_StringDesc) refers to usbh_stdreq.o(i.USBH_GetDescriptor) for USBH_GetDescriptor
    usbh_stdreq.o(i.USBH_Get_StringDesc) refers to usbh_stdreq.o(i.USBH_ParseStringDesc) for USBH_ParseStringDesc
    usbh_stdreq.o(i.USBH_ParseCfgDesc) refers to usbh_stdreq.o(i.USBH_GetNextDesc) for USBH_GetNextDesc
    usbh_stdreq.o(i.USBH_ParseCfgDesc) refers to usbh_stdreq.o(i.USBH_ParseInterfaceDesc) for USBH_ParseInterfaceDesc
    usbh_stdreq.o(i.USBH_ParseCfgDesc) refers to usbh_stdreq.o(i.USBH_ParseEPDesc) for USBH_ParseEPDesc
    usbh_stdreq.o(i.USBH_SetAddress) refers to usbh_ioreq.o(i.USBH_CtlReq) for USBH_CtlReq
    usbh_stdreq.o(i.USBH_SetCfg) refers to usbh_ioreq.o(i.USBH_CtlReq) for USBH_CtlReq
    usbh_msc_bot.o(i.USBH_MSC_BOT_Abort) refers to usbh_stdreq.o(i.USBH_ClrFeature) for USBH_ClrFeature
    usbh_msc_bot.o(i.USBH_MSC_BOT_Abort) refers to usbh_msc_core.o(.bss) for MSC_Machine
    usbh_msc_bot.o(i.USBH_MSC_BOT_Abort) refers to usbh_msc_bot.o(.data) for BOTStallErrorCount
    usbh_msc_bot.o(i.USBH_MSC_DecodeCSW) refers to usb_hcd.o(i.HCD_IsDeviceConnected) for HCD_IsDeviceConnected
    usbh_msc_bot.o(i.USBH_MSC_DecodeCSW) refers to usb_hcd.o(i.HCD_GetXferCnt) for HCD_GetXferCnt
    usbh_msc_bot.o(i.USBH_MSC_DecodeCSW) refers to usbh_msc_core.o(.bss) for MSC_Machine
    usbh_msc_bot.o(i.USBH_MSC_DecodeCSW) refers to usbh_msc_bot.o(.bss) for USBH_MSC_CSWData
    usbh_msc_bot.o(i.USBH_MSC_HandleBOTXfer) refers to usb_hcd.o(i.HCD_IsDeviceConnected) for HCD_IsDeviceConnected
    usbh_msc_bot.o(i.USBH_MSC_HandleBOTXfer) refers to usbh_ioreq.o(i.USBH_BulkSendData) for USBH_BulkSendData
    usbh_msc_bot.o(i.USBH_MSC_HandleBOTXfer) refers to usb_hcd.o(i.HCD_GetURB_State) for HCD_GetURB_State
    usbh_msc_bot.o(i.USBH_MSC_HandleBOTXfer) refers to usbh_ioreq.o(i.USBH_BulkReceiveData) for USBH_BulkReceiveData
    usbh_msc_bot.o(i.USBH_MSC_HandleBOTXfer) refers to usbh_msc_bot.o(i.USBH_MSC_DecodeCSW) for USBH_MSC_DecodeCSW
    usbh_msc_bot.o(i.USBH_MSC_HandleBOTXfer) refers to usbh_msc_bot.o(i.USBH_MSC_BOT_Abort) for USBH_MSC_BOT_Abort
    usbh_msc_bot.o(i.USBH_MSC_HandleBOTXfer) refers to usbh_msc_bot.o(.bss) for USBH_MSC_BOTXferParam
    usbh_msc_bot.o(i.USBH_MSC_HandleBOTXfer) refers to usbh_msc_core.o(.bss) for MSC_Machine
    usbh_msc_bot.o(i.USBH_MSC_HandleBOTXfer) refers to usbh_msc_bot.o(.data) for BOTStallErrorCount
    usbh_msc_bot.o(i.USBH_MSC_Init) refers to usb_hcd.o(i.HCD_IsDeviceConnected) for HCD_IsDeviceConnected
    usbh_msc_bot.o(i.USBH_MSC_Init) refers to usbh_msc_bot.o(.bss) for USBH_MSC_CBWData
    usbh_msc_bot.o(i.USBH_MSC_Init) refers to usbh_msc_bot.o(.data) for BOTStallErrorCount
    usbh_msc_bot.o(i.USBH_MSC_Init) refers to usbh_msc_core.o(.data) for MSCErrorCount
    usbh_msc_core.o(i.USBH_MSC_BOTReset) refers to usbh_ioreq.o(i.USBH_CtlReq) for USBH_CtlReq
    usbh_msc_core.o(i.USBH_MSC_ClassRequest) refers to usbh_msc_bot.o(.bss) for USBH_MSC_BOTXferParam
    usbh_msc_core.o(i.USBH_MSC_ErrorHandle) refers to usbh_msc_core.o(.data) for MSCErrorCount
    usbh_msc_core.o(i.USBH_MSC_ErrorHandle) refers to usbh_msc_bot.o(.bss) for USBH_MSC_BOTXferParam
    usbh_msc_core.o(i.USBH_MSC_GETMaxLUN) refers to usbh_ioreq.o(i.USBH_CtlReq) for USBH_CtlReq
    usbh_msc_core.o(i.USBH_MSC_GETMaxLUN) refers to usbh_msc_core.o(.bss) for MSC_Machine
    usbh_msc_core.o(i.USBH_MSC_Handle) refers to usb_hcd.o(i.HCD_IsDeviceConnected) for HCD_IsDeviceConnected
    usbh_msc_core.o(i.USBH_MSC_Handle) refers to usbh_msc_bot.o(i.USBH_MSC_Init) for USBH_MSC_Init
    usbh_msc_core.o(i.USBH_MSC_Handle) refers to usbh_msc_core.o(i.USBH_MSC_BOTReset) for USBH_MSC_BOTReset
    usbh_msc_core.o(i.USBH_MSC_Handle) refers to usbh_msc_core.o(i.USBH_MSC_GETMaxLUN) for USBH_MSC_GETMaxLUN
    usbh_msc_core.o(i.USBH_MSC_Handle) refers to usbh_stdreq.o(i.USBH_ClrFeature) for USBH_ClrFeature
    usbh_msc_core.o(i.USBH_MSC_Handle) refers to usbh_msc_scsi.o(i.USBH_MSC_TestUnitReady) for USBH_MSC_TestUnitReady
    usbh_msc_core.o(i.USBH_MSC_Handle) refers to usbh_msc_core.o(i.USBH_MSC_ErrorHandle) for USBH_MSC_ErrorHandle
    usbh_msc_core.o(i.USBH_MSC_Handle) refers to usbh_msc_scsi.o(i.USBH_MSC_ReadCapacity10) for USBH_MSC_ReadCapacity10
    usbh_msc_core.o(i.USBH_MSC_Handle) refers to usbh_msc_scsi.o(i.USBH_MSC_ModeSense6) for USBH_MSC_ModeSense6
    usbh_msc_core.o(i.USBH_MSC_Handle) refers to usbh_msc_scsi.o(i.USBH_MSC_RequestSense) for USBH_MSC_RequestSense
    usbh_msc_core.o(i.USBH_MSC_Handle) refers to usbh_msc_bot.o(i.USBH_MSC_HandleBOTXfer) for USBH_MSC_HandleBOTXfer
    usbh_msc_core.o(i.USBH_MSC_Handle) refers to usbh_msc_bot.o(.bss) for USBH_MSC_BOTXferParam
    usbh_msc_core.o(i.USBH_MSC_Handle) refers to usbh_msc_core.o(.bss) for MSC_Machine
    usbh_msc_core.o(i.USBH_MSC_Handle) refers to usbh_msc_core.o(.data) for maxLunExceed
    usbh_msc_core.o(i.USBH_MSC_InterfaceDeInit) refers to usb_core.o(i.USB_OTG_HC_Halt) for USB_OTG_HC_Halt
    usbh_msc_core.o(i.USBH_MSC_InterfaceDeInit) refers to usbh_hcs.o(i.USBH_Free_Channel) for USBH_Free_Channel
    usbh_msc_core.o(i.USBH_MSC_InterfaceDeInit) refers to usbh_msc_core.o(.bss) for MSC_Machine
    usbh_msc_core.o(i.USBH_MSC_InterfaceInit) refers to usbh_hcs.o(i.USBH_Alloc_Channel) for USBH_Alloc_Channel
    usbh_msc_core.o(i.USBH_MSC_InterfaceInit) refers to usbh_hcs.o(i.USBH_Open_Channel) for USBH_Open_Channel
    usbh_msc_core.o(i.USBH_MSC_InterfaceInit) refers to usbh_msc_core.o(.bss) for MSC_Machine
    usbh_msc_core.o(.data) refers to usbh_msc_core.o(i.USBH_MSC_InterfaceInit) for USBH_MSC_InterfaceInit
    usbh_msc_core.o(.data) refers to usbh_msc_core.o(i.USBH_MSC_InterfaceDeInit) for USBH_MSC_InterfaceDeInit
    usbh_msc_core.o(.data) refers to usbh_msc_core.o(i.USBH_MSC_ClassRequest) for USBH_MSC_ClassRequest
    usbh_msc_core.o(.data) refers to usbh_msc_core.o(i.USBH_MSC_Handle) for USBH_MSC_Handle
    usbh_msc_scsi.o(i.USBH_MSC_ModeSense6) refers to usb_hcd.o(i.HCD_IsDeviceConnected) for HCD_IsDeviceConnected
    usbh_msc_scsi.o(i.USBH_MSC_ModeSense6) refers to usbh_msc_bot.o(.bss) for USBH_MSC_BOTXferParam
    usbh_msc_scsi.o(i.USBH_MSC_ModeSense6) refers to usbh_msc_scsi.o(.bss) for USBH_DataInBuffer
    usbh_msc_scsi.o(i.USBH_MSC_Read10) refers to usb_hcd.o(i.HCD_IsDeviceConnected) for HCD_IsDeviceConnected
    usbh_msc_scsi.o(i.USBH_MSC_Read10) refers to usbh_msc_scsi.o(.data) for status
    usbh_msc_scsi.o(i.USBH_MSC_Read10) refers to usbh_msc_bot.o(.bss) for USBH_MSC_BOTXferParam
    usbh_msc_scsi.o(i.USBH_MSC_ReadCapacity10) refers to usb_hcd.o(i.HCD_IsDeviceConnected) for HCD_IsDeviceConnected
    usbh_msc_scsi.o(i.USBH_MSC_ReadCapacity10) refers to usbh_msc_bot.o(.bss) for USBH_MSC_BOTXferParam
    usbh_msc_scsi.o(i.USBH_MSC_ReadCapacity10) refers to usbh_msc_scsi.o(.bss) for USBH_DataInBuffer
    usbh_msc_scsi.o(i.USBH_MSC_RequestSense) refers to usb_hcd.o(i.HCD_IsDeviceConnected) for HCD_IsDeviceConnected
    usbh_msc_scsi.o(i.USBH_MSC_RequestSense) refers to usbh_msc_bot.o(.bss) for USBH_MSC_BOTXferParam
    usbh_msc_scsi.o(i.USBH_MSC_RequestSense) refers to usbh_msc_scsi.o(.bss) for USBH_DataInBuffer
    usbh_msc_scsi.o(i.USBH_MSC_TestUnitReady) refers to usb_hcd.o(i.HCD_IsDeviceConnected) for HCD_IsDeviceConnected
    usbh_msc_scsi.o(i.USBH_MSC_TestUnitReady) refers to usbh_msc_bot.o(.bss) for USBH_MSC_BOTXferParam
    usbh_msc_scsi.o(i.USBH_MSC_Write10) refers to usb_hcd.o(i.HCD_IsDeviceConnected) for HCD_IsDeviceConnected
    usbh_msc_scsi.o(i.USBH_MSC_Write10) refers to usbh_msc_bot.o(.bss) for USBH_MSC_BOTXferParam
    os_core.o(i.OSInit) refers to os_cpu_c.o(i.OSInitHookBegin) for OSInitHookBegin
    os_core.o(i.OSInit) refers to os_core.o(i.OS_InitMisc) for OS_InitMisc
    os_core.o(i.OSInit) refers to os_core.o(i.OS_InitRdyList) for OS_InitRdyList
    os_core.o(i.OSInit) refers to os_core.o(i.OS_InitTCBList) for OS_InitTCBList
    os_core.o(i.OSInit) refers to os_core.o(i.OS_InitEventList) for OS_InitEventList
    os_core.o(i.OSInit) refers to os_flag.o(i.OS_FlagInit) for OS_FlagInit
    os_core.o(i.OSInit) refers to os_q.o(i.OS_QInit) for OS_QInit
    os_core.o(i.OSInit) refers to os_core.o(i.OS_InitTaskIdle) for OS_InitTaskIdle
    os_core.o(i.OSInit) refers to os_core.o(i.OS_InitTaskStat) for OS_InitTaskStat
    os_core.o(i.OSInit) refers to os_cpu_c.o(i.OSInitHookEnd) for OSInitHookEnd
    os_core.o(i.OSIntEnter) refers to os_core.o(.data) for OSRunning
    os_core.o(i.OSIntExit) refers to os_cpu_a.o(.text) for OS_CPU_SR_Save
    os_core.o(i.OSIntExit) refers to os_core.o(i.OS_SchedNew) for OS_SchedNew
    os_core.o(i.OSIntExit) refers to os_core.o(.data) for OSRunning
    os_core.o(i.OSIntExit) refers to os_core.o(.bss) for OSTCBPrioTbl
    os_core.o(i.OSSchedLock) refers to os_cpu_a.o(.text) for OS_CPU_SR_Save
    os_core.o(i.OSSchedLock) refers to os_core.o(.data) for OSRunning
    os_core.o(i.OSSchedUnlock) refers to os_cpu_a.o(.text) for OS_CPU_SR_Save
    os_core.o(i.OSSchedUnlock) refers to os_core.o(i.OS_Sched) for OS_Sched
    os_core.o(i.OSSchedUnlock) refers to os_core.o(.data) for OSRunning
    os_core.o(i.OSStart) refers to os_core.o(i.OS_SchedNew) for OS_SchedNew
    os_core.o(i.OSStart) refers to os_cpu_a.o(.text) for OSStartHighRdy
    os_core.o(i.OSStart) refers to os_core.o(.data) for OSRunning
    os_core.o(i.OSStart) refers to os_core.o(.bss) for OSTCBPrioTbl
    os_core.o(i.OSStatInit) refers to os_time.o(i.OSTimeDly) for OSTimeDly
    os_core.o(i.OSStatInit) refers to os_cpu_a.o(.text) for OS_CPU_SR_Save
    os_core.o(i.OSStatInit) refers to os_core.o(.data) for OSIdleCtr
    os_core.o(i.OSTimeTick) refers to os_cpu_c.o(i.OSTimeTickHook) for OSTimeTickHook
    os_core.o(i.OSTimeTick) refers to os_cpu_a.o(.text) for OS_CPU_SR_Save
    os_core.o(i.OSTimeTick) refers to os_core.o(.data) for OSTime
    os_core.o(i.OS_EventTaskRdy) refers to os_core.o(i.OS_EventTaskRemove) for OS_EventTaskRemove
    os_core.o(i.OS_EventTaskRdy) refers to os_core.o(.constdata) for OSUnMapTbl
    os_core.o(i.OS_EventTaskRdy) refers to os_core.o(.bss) for OSTCBPrioTbl
    os_core.o(i.OS_EventTaskRdy) refers to os_core.o(.data) for OSRdyGrp
    os_core.o(i.OS_EventTaskWait) refers to os_core.o(.data) for OSTCBCur
    os_core.o(i.OS_InitEventList) refers to os_core.o(i.OS_MemClr) for OS_MemClr
    os_core.o(i.OS_InitEventList) refers to os_core.o(.bss) for OSEventTbl
    os_core.o(i.OS_InitEventList) refers to os_core.o(.data) for OSEventFreeList
    os_core.o(i.OS_InitMisc) refers to os_core.o(.data) for OSTime
    os_core.o(i.OS_InitRdyList) refers to os_core.o(.data) for OSRdyGrp
    os_core.o(i.OS_InitTCBList) refers to os_core.o(i.OS_MemClr) for OS_MemClr
    os_core.o(i.OS_InitTCBList) refers to os_core.o(.bss) for OSTCBTbl
    os_core.o(i.OS_InitTCBList) refers to os_core.o(.data) for OSTCBList
    os_core.o(i.OS_InitTaskIdle) refers to os_task.o(i.OSTaskCreateExt) for OSTaskCreateExt
    os_core.o(i.OS_InitTaskIdle) refers to os_task.o(i.OSTaskNameSet) for OSTaskNameSet
    os_core.o(i.OS_InitTaskIdle) refers to os_core.o(.bss) for OSTaskIdleStk
    os_core.o(i.OS_InitTaskIdle) refers to os_core.o(i.OS_TaskIdle) for OS_TaskIdle
    os_core.o(i.OS_InitTaskStat) refers to os_task.o(i.OSTaskCreateExt) for OSTaskCreateExt
    os_core.o(i.OS_InitTaskStat) refers to os_task.o(i.OSTaskNameSet) for OSTaskNameSet
    os_core.o(i.OS_InitTaskStat) refers to os_core.o(.bss) for OSTaskStatStk
    os_core.o(i.OS_InitTaskStat) refers to os_core.o(i.OS_TaskStat) for OS_TaskStat
    os_core.o(i.OS_Sched) refers to os_cpu_a.o(.text) for OS_CPU_SR_Save
    os_core.o(i.OS_Sched) refers to os_core.o(i.OS_SchedNew) for OS_SchedNew
    os_core.o(i.OS_Sched) refers to os_core.o(.data) for OSIntNesting
    os_core.o(i.OS_Sched) refers to os_core.o(.bss) for OSTCBPrioTbl
    os_core.o(i.OS_SchedNew) refers to os_core.o(.constdata) for OSUnMapTbl
    os_core.o(i.OS_SchedNew) refers to os_core.o(.data) for OSRdyGrp
    os_core.o(i.OS_TCBInit) refers to os_cpu_a.o(.text) for OS_CPU_SR_Save
    os_core.o(i.OS_TCBInit) refers to os_cpu_c.o(i.OSTCBInitHook) for OSTCBInitHook
    os_core.o(i.OS_TCBInit) refers to os_cpu_c.o(i.OSTaskCreateHook) for OSTaskCreateHook
    os_core.o(i.OS_TCBInit) refers to os_core.o(.data) for OSTCBFreeList
    os_core.o(i.OS_TCBInit) refers to os_core.o(.bss) for OSTCBPrioTbl
    os_core.o(i.OS_TaskIdle) refers to os_cpu_a.o(.text) for OS_CPU_SR_Save
    os_core.o(i.OS_TaskIdle) refers to os_cpu_c.o(i.OSTaskIdleHook) for OSTaskIdleHook
    os_core.o(i.OS_TaskIdle) refers to os_core.o(.data) for OSIdleCtr
    os_core.o(i.OS_TaskStat) refers to os_time.o(i.OSTimeDly) for OSTimeDly
    os_core.o(i.OS_TaskStat) refers to os_task.o(i.OSTaskSuspend) for OSTaskSuspend
    os_core.o(i.OS_TaskStat) refers to os_cpu_a.o(.text) for OS_CPU_SR_Save
    os_core.o(i.OS_TaskStat) refers to os_cpu_c.o(i.OSTaskStatHook) for OSTaskStatHook
    os_core.o(i.OS_TaskStat) refers to os_core.o(i.OS_TaskStatStkChk) for OS_TaskStatStkChk
    os_core.o(i.OS_TaskStat) refers to os_core.o(.data) for OSStatRdy
    os_core.o(i.OS_TaskStatStkChk) refers to os_task.o(i.OSTaskStkChk) for OSTaskStkChk
    os_core.o(i.OS_TaskStatStkChk) refers to os_core.o(.bss) for OSTCBPrioTbl
    os_flag.o(i.OSFlagAccept) refers to os_cpu_a.o(.text) for OS_CPU_SR_Save
    os_flag.o(i.OSFlagCreate) refers to os_cpu_a.o(.text) for OS_CPU_SR_Save
    os_flag.o(i.OSFlagCreate) refers to os_core.o(.data) for OSIntNesting
    os_flag.o(i.OSFlagDel) refers to os_cpu_a.o(.text) for OS_CPU_SR_Save
    os_flag.o(i.OSFlagDel) refers to os_flag.o(i.OS_FlagTaskRdy) for OS_FlagTaskRdy
    os_flag.o(i.OSFlagDel) refers to os_core.o(i.OS_Sched) for OS_Sched
    os_flag.o(i.OSFlagDel) refers to os_core.o(.data) for OSIntNesting
    os_flag.o(i.OSFlagNameGet) refers to os_cpu_a.o(.text) for OS_CPU_SR_Save
    os_flag.o(i.OSFlagNameGet) refers to os_core.o(i.OS_StrLen) for OS_StrLen
    os_flag.o(i.OSFlagNameGet) refers to os_core.o(.data) for OSIntNesting
    os_flag.o(i.OSFlagNameSet) refers to os_cpu_a.o(.text) for OS_CPU_SR_Save
    os_flag.o(i.OSFlagNameSet) refers to os_core.o(.data) for OSIntNesting
    os_flag.o(i.OSFlagPend) refers to os_cpu_a.o(.text) for OS_CPU_SR_Save
    os_flag.o(i.OSFlagPend) refers to os_flag.o(i.OS_FlagBlock) for OS_FlagBlock
    os_flag.o(i.OSFlagPend) refers to os_core.o(i.OS_Sched) for OS_Sched
    os_flag.o(i.OSFlagPend) refers to os_flag.o(i.OS_FlagUnlink) for OS_FlagUnlink
    os_flag.o(i.OSFlagPend) refers to os_core.o(.data) for OSIntNesting
    os_flag.o(i.OSFlagPendGetFlagsRdy) refers to os_cpu_a.o(.text) for OS_CPU_SR_Save
    os_flag.o(i.OSFlagPendGetFlagsRdy) refers to os_core.o(.data) for OSTCBCur
    os_flag.o(i.OSFlagPost) refers to os_cpu_a.o(.text) for OS_CPU_SR_Save
    os_flag.o(i.OSFlagPost) refers to os_flag.o(i.OS_FlagTaskRdy) for OS_FlagTaskRdy
    os_flag.o(i.OSFlagPost) refers to os_core.o(i.OS_Sched) for OS_Sched
    os_flag.o(i.OSFlagQuery) refers to os_cpu_a.o(.text) for OS_CPU_SR_Save
    os_flag.o(i.OS_FlagBlock) refers to os_core.o(.data) for OSTCBCur
    os_flag.o(i.OS_FlagInit) refers to os_core.o(i.OS_MemClr) for OS_MemClr
    os_flag.o(i.OS_FlagInit) refers to os_core.o(.bss) for OSFlagTbl
    os_flag.o(i.OS_FlagInit) refers to os_core.o(.data) for OSFlagFreeList
    os_flag.o(i.OS_FlagTaskRdy) refers to os_flag.o(i.OS_FlagUnlink) for OS_FlagUnlink
    os_flag.o(i.OS_FlagTaskRdy) refers to os_core.o(.data) for OSRdyGrp
    os_mbox.o(i.OSMboxAccept) refers to os_cpu_a.o(.text) for OS_CPU_SR_Save
    os_mbox.o(i.OSMboxCreate) refers to os_cpu_a.o(.text) for OS_CPU_SR_Save
    os_mbox.o(i.OSMboxCreate) refers to os_core.o(i.OS_EventWaitListInit) for OS_EventWaitListInit
    os_mbox.o(i.OSMboxCreate) refers to os_core.o(.data) for OSIntNesting
    os_mbox.o(i.OSMboxDel) refers to os_cpu_a.o(.text) for OS_CPU_SR_Save
    os_mbox.o(i.OSMboxDel) refers to os_core.o(i.OS_EventTaskRdy) for OS_EventTaskRdy
    os_mbox.o(i.OSMboxDel) refers to os_core.o(i.OS_Sched) for OS_Sched
    os_mbox.o(i.OSMboxDel) refers to os_core.o(.data) for OSIntNesting
    os_mbox.o(i.OSMboxPend) refers to os_cpu_a.o(.text) for OS_CPU_SR_Save
    os_mbox.o(i.OSMboxPend) refers to os_core.o(i.OS_EventTaskWait) for OS_EventTaskWait
    os_mbox.o(i.OSMboxPend) refers to os_core.o(i.OS_Sched) for OS_Sched
    os_mbox.o(i.OSMboxPend) refers to os_core.o(i.OS_EventTaskRemove) for OS_EventTaskRemove
    os_mbox.o(i.OSMboxPend) refers to os_core.o(.data) for OSIntNesting
    os_mbox.o(i.OSMboxPendAbort) refers to os_cpu_a.o(.text) for OS_CPU_SR_Save
    os_mbox.o(i.OSMboxPendAbort) refers to os_core.o(i.OS_EventTaskRdy) for OS_EventTaskRdy
    os_mbox.o(i.OSMboxPendAbort) refers to os_core.o(i.OS_Sched) for OS_Sched
    os_mbox.o(i.OSMboxPost) refers to os_cpu_a.o(.text) for OS_CPU_SR_Save
    os_mbox.o(i.OSMboxPost) refers to os_core.o(i.OS_EventTaskRdy) for OS_EventTaskRdy
    os_mbox.o(i.OSMboxPost) refers to os_core.o(i.OS_Sched) for OS_Sched
    os_mbox.o(i.OSMboxPostOpt) refers to os_cpu_a.o(.text) for OS_CPU_SR_Save
    os_mbox.o(i.OSMboxPostOpt) refers to os_core.o(i.OS_EventTaskRdy) for OS_EventTaskRdy
    os_mbox.o(i.OSMboxPostOpt) refers to os_core.o(i.OS_Sched) for OS_Sched
    os_mbox.o(i.OSMboxQuery) refers to os_cpu_a.o(.text) for OS_CPU_SR_Save
    os_mutex.o(i.OSMutexAccept) refers to os_cpu_a.o(.text) for OS_CPU_SR_Save
    os_mutex.o(i.OSMutexAccept) refers to os_core.o(.data) for OSIntNesting
    os_mutex.o(i.OSMutexCreate) refers to os_cpu_a.o(.text) for OS_CPU_SR_Save
    os_mutex.o(i.OSMutexCreate) refers to os_core.o(i.OS_EventWaitListInit) for OS_EventWaitListInit
    os_mutex.o(i.OSMutexCreate) refers to os_core.o(.data) for OSIntNesting
    os_mutex.o(i.OSMutexCreate) refers to os_core.o(.bss) for OSTCBPrioTbl
    os_mutex.o(i.OSMutexDel) refers to os_cpu_a.o(.text) for OS_CPU_SR_Save
    os_mutex.o(i.OSMutexDel) refers to os_mutex.o(i.OSMutex_RdyAtPrio) for OSMutex_RdyAtPrio
    os_mutex.o(i.OSMutexDel) refers to os_core.o(i.OS_EventTaskRdy) for OS_EventTaskRdy
    os_mutex.o(i.OSMutexDel) refers to os_core.o(i.OS_Sched) for OS_Sched
    os_mutex.o(i.OSMutexDel) refers to os_core.o(.data) for OSIntNesting
    os_mutex.o(i.OSMutexDel) refers to os_core.o(.bss) for OSTCBPrioTbl
    os_mutex.o(i.OSMutexPend) refers to os_cpu_a.o(.text) for OS_CPU_SR_Save
    os_mutex.o(i.OSMutexPend) refers to os_core.o(i.OS_EventTaskWait) for OS_EventTaskWait
    os_mutex.o(i.OSMutexPend) refers to os_core.o(i.OS_Sched) for OS_Sched
    os_mutex.o(i.OSMutexPend) refers to os_core.o(i.OS_EventTaskRemove) for OS_EventTaskRemove
    os_mutex.o(i.OSMutexPend) refers to os_core.o(.data) for OSIntNesting
    os_mutex.o(i.OSMutexPend) refers to os_core.o(.bss) for OSTCBPrioTbl
    os_mutex.o(i.OSMutexPost) refers to os_cpu_a.o(.text) for OS_CPU_SR_Save
    os_mutex.o(i.OSMutexPost) refers to os_mutex.o(i.OSMutex_RdyAtPrio) for OSMutex_RdyAtPrio
    os_mutex.o(i.OSMutexPost) refers to os_core.o(i.OS_EventTaskRdy) for OS_EventTaskRdy
    os_mutex.o(i.OSMutexPost) refers to os_core.o(i.OS_Sched) for OS_Sched
    os_mutex.o(i.OSMutexPost) refers to os_core.o(.data) for OSIntNesting
    os_mutex.o(i.OSMutexPost) refers to os_core.o(.bss) for OSTCBPrioTbl
    os_mutex.o(i.OSMutexQuery) refers to os_cpu_a.o(.text) for OS_CPU_SR_Save
    os_mutex.o(i.OSMutexQuery) refers to os_core.o(.data) for OSIntNesting
    os_mutex.o(i.OSMutex_RdyAtPrio) refers to os_core.o(.data) for OSRdyTbl
    os_mutex.o(i.OSMutex_RdyAtPrio) refers to os_core.o(.bss) for OSTCBPrioTbl
    os_q.o(i.OSQAccept) refers to os_cpu_a.o(.text) for OS_CPU_SR_Save
    os_q.o(i.OSQCreate) refers to os_cpu_a.o(.text) for OS_CPU_SR_Save
    os_q.o(i.OSQCreate) refers to os_core.o(i.OS_EventWaitListInit) for OS_EventWaitListInit
    os_q.o(i.OSQCreate) refers to os_core.o(.data) for OSIntNesting
    os_q.o(i.OSQDel) refers to os_cpu_a.o(.text) for OS_CPU_SR_Save
    os_q.o(i.OSQDel) refers to os_core.o(i.OS_EventTaskRdy) for OS_EventTaskRdy
    os_q.o(i.OSQDel) refers to os_core.o(i.OS_Sched) for OS_Sched
    os_q.o(i.OSQDel) refers to os_core.o(.data) for OSIntNesting
    os_q.o(i.OSQFlush) refers to os_cpu_a.o(.text) for OS_CPU_SR_Save
    os_q.o(i.OSQPend) refers to os_cpu_a.o(.text) for OS_CPU_SR_Save
    os_q.o(i.OSQPend) refers to os_core.o(i.OS_EventTaskWait) for OS_EventTaskWait
    os_q.o(i.OSQPend) refers to os_core.o(i.OS_Sched) for OS_Sched
    os_q.o(i.OSQPend) refers to os_core.o(i.OS_EventTaskRemove) for OS_EventTaskRemove
    os_q.o(i.OSQPend) refers to os_core.o(.data) for OSIntNesting
    os_q.o(i.OSQPendAbort) refers to os_cpu_a.o(.text) for OS_CPU_SR_Save
    os_q.o(i.OSQPendAbort) refers to os_core.o(i.OS_EventTaskRdy) for OS_EventTaskRdy
    os_q.o(i.OSQPendAbort) refers to os_core.o(i.OS_Sched) for OS_Sched
    os_q.o(i.OSQPost) refers to os_cpu_a.o(.text) for OS_CPU_SR_Save
    os_q.o(i.OSQPost) refers to os_core.o(i.OS_EventTaskRdy) for OS_EventTaskRdy
    os_q.o(i.OSQPost) refers to os_core.o(i.OS_Sched) for OS_Sched
    os_q.o(i.OSQPostFront) refers to os_cpu_a.o(.text) for OS_CPU_SR_Save
    os_q.o(i.OSQPostFront) refers to os_core.o(i.OS_EventTaskRdy) for OS_EventTaskRdy
    os_q.o(i.OSQPostFront) refers to os_core.o(i.OS_Sched) for OS_Sched
    os_q.o(i.OSQPostOpt) refers to os_cpu_a.o(.text) for OS_CPU_SR_Save
    os_q.o(i.OSQPostOpt) refers to os_core.o(i.OS_EventTaskRdy) for OS_EventTaskRdy
    os_q.o(i.OSQPostOpt) refers to os_core.o(i.OS_Sched) for OS_Sched
    os_q.o(i.OSQQuery) refers to os_cpu_a.o(.text) for OS_CPU_SR_Save
    os_q.o(i.OS_QInit) refers to os_core.o(i.OS_MemClr) for OS_MemClr
    os_q.o(i.OS_QInit) refers to os_core.o(.bss) for OSQTbl
    os_q.o(i.OS_QInit) refers to os_core.o(.data) for OSQFreeList
    os_sem.o(i.OSSemAccept) refers to os_cpu_a.o(.text) for OS_CPU_SR_Save
    os_sem.o(i.OSSemCreate) refers to os_cpu_a.o(.text) for OS_CPU_SR_Save
    os_sem.o(i.OSSemCreate) refers to os_core.o(i.OS_EventWaitListInit) for OS_EventWaitListInit
    os_sem.o(i.OSSemCreate) refers to os_core.o(.data) for OSIntNesting
    os_sem.o(i.OSSemDel) refers to os_cpu_a.o(.text) for OS_CPU_SR_Save
    os_sem.o(i.OSSemDel) refers to os_core.o(i.OS_EventTaskRdy) for OS_EventTaskRdy
    os_sem.o(i.OSSemDel) refers to os_core.o(i.OS_Sched) for OS_Sched
    os_sem.o(i.OSSemDel) refers to os_core.o(.data) for OSIntNesting
    os_sem.o(i.OSSemPend) refers to os_cpu_a.o(.text) for OS_CPU_SR_Save
    os_sem.o(i.OSSemPend) refers to os_core.o(i.OS_EventTaskWait) for OS_EventTaskWait
    os_sem.o(i.OSSemPend) refers to os_core.o(i.OS_Sched) for OS_Sched
    os_sem.o(i.OSSemPend) refers to os_core.o(i.OS_EventTaskRemove) for OS_EventTaskRemove
    os_sem.o(i.OSSemPend) refers to os_core.o(.data) for OSIntNesting
    os_sem.o(i.OSSemPendAbort) refers to os_cpu_a.o(.text) for OS_CPU_SR_Save
    os_sem.o(i.OSSemPendAbort) refers to os_core.o(i.OS_EventTaskRdy) for OS_EventTaskRdy
    os_sem.o(i.OSSemPendAbort) refers to os_core.o(i.OS_Sched) for OS_Sched
    os_sem.o(i.OSSemPost) refers to os_cpu_a.o(.text) for OS_CPU_SR_Save
    os_sem.o(i.OSSemPost) refers to os_core.o(i.OS_EventTaskRdy) for OS_EventTaskRdy
    os_sem.o(i.OSSemPost) refers to os_core.o(i.OS_Sched) for OS_Sched
    os_sem.o(i.OSSemQuery) refers to os_cpu_a.o(.text) for OS_CPU_SR_Save
    os_sem.o(i.OSSemSet) refers to os_cpu_a.o(.text) for OS_CPU_SR_Save
    os_task.o(i.OSTaskChangePrio) refers to os_cpu_a.o(.text) for OS_CPU_SR_Save
    os_task.o(i.OSTaskChangePrio) refers to os_core.o(i.OS_Sched) for OS_Sched
    os_task.o(i.OSTaskChangePrio) refers to os_core.o(.bss) for OSTCBPrioTbl
    os_task.o(i.OSTaskChangePrio) refers to os_core.o(.data) for OSTCBCur
    os_task.o(i.OSTaskCreate) refers to os_cpu_a.o(.text) for OS_CPU_SR_Save
    os_task.o(i.OSTaskCreate) refers to os_cpu_c.o(i.OSTaskStkInit) for OSTaskStkInit
    os_task.o(i.OSTaskCreate) refers to os_core.o(i.OS_TCBInit) for OS_TCBInit
    os_task.o(i.OSTaskCreate) refers to os_core.o(i.OS_Sched) for OS_Sched
    os_task.o(i.OSTaskCreate) refers to os_core.o(.data) for OSIntNesting
    os_task.o(i.OSTaskCreate) refers to os_core.o(.bss) for OSTCBPrioTbl
    os_task.o(i.OSTaskCreateExt) refers to os_cpu_a.o(.text) for OS_CPU_SR_Save
    os_task.o(i.OSTaskCreateExt) refers to os_task.o(i.OS_TaskStkClr) for OS_TaskStkClr
    os_task.o(i.OSTaskCreateExt) refers to os_cpu_c.o(i.OSTaskStkInit) for OSTaskStkInit
    os_task.o(i.OSTaskCreateExt) refers to os_core.o(i.OS_TCBInit) for OS_TCBInit
    os_task.o(i.OSTaskCreateExt) refers to os_core.o(i.OS_Sched) for OS_Sched
    os_task.o(i.OSTaskCreateExt) refers to os_core.o(.data) for OSIntNesting
    os_task.o(i.OSTaskCreateExt) refers to os_core.o(.bss) for OSTCBPrioTbl
    os_task.o(i.OSTaskDel) refers to os_cpu_a.o(.text) for OS_CPU_SR_Save
    os_task.o(i.OSTaskDel) refers to os_core.o(i.OS_EventTaskRemove) for OS_EventTaskRemove
    os_task.o(i.OSTaskDel) refers to os_flag.o(i.OS_FlagUnlink) for OS_FlagUnlink
    os_task.o(i.OSTaskDel) refers to os_core.o(i.OS_Dummy) for OS_Dummy
    os_task.o(i.OSTaskDel) refers to os_cpu_c.o(i.OSTaskDelHook) for OSTaskDelHook
    os_task.o(i.OSTaskDel) refers to os_core.o(i.OS_Sched) for OS_Sched
    os_task.o(i.OSTaskDel) refers to os_core.o(.data) for OSIntNesting
    os_task.o(i.OSTaskDel) refers to os_core.o(.bss) for OSTCBPrioTbl
    os_task.o(i.OSTaskDelReq) refers to os_cpu_a.o(.text) for OS_CPU_SR_Save
    os_task.o(i.OSTaskDelReq) refers to os_core.o(.data) for OSTCBCur
    os_task.o(i.OSTaskDelReq) refers to os_core.o(.bss) for OSTCBPrioTbl
    os_task.o(i.OSTaskNameGet) refers to os_cpu_a.o(.text) for OS_CPU_SR_Save
    os_task.o(i.OSTaskNameGet) refers to os_core.o(i.OS_StrLen) for OS_StrLen
    os_task.o(i.OSTaskNameGet) refers to os_core.o(.data) for OSIntNesting
    os_task.o(i.OSTaskNameGet) refers to os_core.o(.bss) for OSTCBPrioTbl
    os_task.o(i.OSTaskNameSet) refers to os_cpu_a.o(.text) for OS_CPU_SR_Save
    os_task.o(i.OSTaskNameSet) refers to os_core.o(.data) for OSIntNesting
    os_task.o(i.OSTaskNameSet) refers to os_core.o(.bss) for OSTCBPrioTbl
    os_task.o(i.OSTaskQuery) refers to os_cpu_a.o(.text) for OS_CPU_SR_Save
    os_task.o(i.OSTaskQuery) refers to os_core.o(i.OS_MemCopy) for OS_MemCopy
    os_task.o(i.OSTaskQuery) refers to os_core.o(.data) for OSTCBCur
    os_task.o(i.OSTaskQuery) refers to os_core.o(.bss) for OSTCBPrioTbl
    os_task.o(i.OSTaskRegGet) refers to os_cpu_a.o(.text) for OS_CPU_SR_Save
    os_task.o(i.OSTaskRegGet) refers to os_core.o(.data) for OSTCBCur
    os_task.o(i.OSTaskRegGet) refers to os_core.o(.bss) for OSTCBPrioTbl
    os_task.o(i.OSTaskRegSet) refers to os_cpu_a.o(.text) for OS_CPU_SR_Save
    os_task.o(i.OSTaskRegSet) refers to os_core.o(.data) for OSTCBCur
    os_task.o(i.OSTaskRegSet) refers to os_core.o(.bss) for OSTCBPrioTbl
    os_task.o(i.OSTaskResume) refers to os_cpu_a.o(.text) for OS_CPU_SR_Save
    os_task.o(i.OSTaskResume) refers to os_core.o(i.OS_Sched) for OS_Sched
    os_task.o(i.OSTaskResume) refers to os_core.o(.bss) for OSTCBPrioTbl
    os_task.o(i.OSTaskResume) refers to os_core.o(.data) for OSRdyGrp
    os_task.o(i.OSTaskStkChk) refers to os_cpu_a.o(.text) for OS_CPU_SR_Save
    os_task.o(i.OSTaskStkChk) refers to os_core.o(.data) for OSTCBCur
    os_task.o(i.OSTaskStkChk) refers to os_core.o(.bss) for OSTCBPrioTbl
    os_task.o(i.OSTaskSuspend) refers to os_cpu_a.o(.text) for OS_CPU_SR_Save
    os_task.o(i.OSTaskSuspend) refers to os_core.o(i.OS_Sched) for OS_Sched
    os_task.o(i.OSTaskSuspend) refers to os_core.o(.data) for OSTCBCur
    os_task.o(i.OSTaskSuspend) refers to os_core.o(.bss) for OSTCBPrioTbl
    os_task.o(i.OS_TaskReturn) refers to os_cpu_c.o(i.OSTaskReturnHook) for OSTaskReturnHook
    os_task.o(i.OS_TaskReturn) refers to os_task.o(i.OSTaskDel) for OSTaskDel
    os_task.o(i.OS_TaskReturn) refers to os_core.o(.data) for OSTCBCur
    os_time.o(i.OSTimeDly) refers to os_cpu_a.o(.text) for OS_CPU_SR_Save
    os_time.o(i.OSTimeDly) refers to os_core.o(i.OS_Sched) for OS_Sched
    os_time.o(i.OSTimeDly) refers to os_core.o(.data) for OSIntNesting
    os_time.o(i.OSTimeDlyHMSM) refers to os_time.o(i.OSTimeDly) for OSTimeDly
    os_time.o(i.OSTimeDlyHMSM) refers to os_core.o(.data) for OSIntNesting
    os_time.o(i.OSTimeDlyResume) refers to os_cpu_a.o(.text) for OS_CPU_SR_Save
    os_time.o(i.OSTimeDlyResume) refers to os_core.o(i.OS_Sched) for OS_Sched
    os_time.o(i.OSTimeDlyResume) refers to os_core.o(.bss) for OSTCBPrioTbl
    os_time.o(i.OSTimeDlyResume) refers to os_core.o(.data) for OSRdyGrp
    os_time.o(i.OSTimeGet) refers to os_cpu_a.o(.text) for OS_CPU_SR_Save
    os_time.o(i.OSTimeGet) refers to os_core.o(.data) for OSTime
    os_time.o(i.OSTimeSet) refers to os_cpu_a.o(.text) for OS_CPU_SR_Save
    os_time.o(i.OSTimeSet) refers to os_core.o(.data) for OSTime
    os_cpu_a.o(.text) refers to os_core.o(.data) for OSRunning
    os_cpu_a.o(.text) refers to os_cpu_c.o(i.OSTaskSwHook) for OSTaskSwHook
    os_cpu_c.o(i.OSTaskStkInit) refers to os_task.o(i.OS_TaskReturn) for OS_TaskReturn
    entry.o(.ARM.Collect$$$$00000000) refers (Special) to entry10a.o(.ARM.Collect$$$$0000000D) for __rt_final_cpp
    entry.o(.ARM.Collect$$$$00000000) refers (Special) to entry11a.o(.ARM.Collect$$$$0000000F) for __rt_final_exit
    entry.o(.ARM.Collect$$$$00000000) refers (Special) to entry7b.o(.ARM.Collect$$$$00000008) for _main_clock
    entry.o(.ARM.Collect$$$$00000000) refers (Special) to entry8b.o(.ARM.Collect$$$$0000000A) for _main_cpp_init
    entry.o(.ARM.Collect$$$$00000000) refers (Special) to entry9a.o(.ARM.Collect$$$$0000000B) for _main_init
    entry.o(.ARM.Collect$$$$00000000) refers (Special) to entry5.o(.ARM.Collect$$$$00000004) for _main_scatterload
    entry.o(.ARM.Collect$$$$00000000) refers (Special) to entry2.o(.ARM.Collect$$$$00000001) for _main_stk
    rand.o(.text) refers to rand.o(.data) for .data
    printfb.o(i.__0fprintf$bare) refers to printfb.o(i._printf_core) for _printf_core
    printfb.o(i.__0fprintf$bare) refers to usart.o(i.fputc) for fputc
    printfb.o(i.__0printf$bare) refers to printfb.o(i._printf_core) for _printf_core
    printfb.o(i.__0printf$bare) refers to usart.o(i.fputc) for fputc
    printfb.o(i.__0printf$bare) refers to usart.o(.data) for __stdout
    printfb.o(i.__0snprintf$bare) refers to printfb.o(i._printf_core) for _printf_core
    printfb.o(i.__0snprintf$bare) refers to printfb.o(i._snputc) for _snputc
    printfb.o(i.__0sprintf$bare) refers to printfb.o(i._printf_core) for _printf_core
    printfb.o(i.__0sprintf$bare) refers to printfb.o(i._sputc) for _sputc
    printfb.o(i.__0vfprintf$bare) refers to printfb.o(i._printf_core) for _printf_core
    printfb.o(i.__0vfprintf$bare) refers to usart.o(i.fputc) for fputc
    printfb.o(i.__0vprintf$bare) refers to printfb.o(i._printf_core) for _printf_core
    printfb.o(i.__0vprintf$bare) refers to usart.o(i.fputc) for fputc
    printfb.o(i.__0vprintf$bare) refers to usart.o(.data) for __stdout
    printfb.o(i.__0vsnprintf$bare) refers to printfb.o(i._printf_core) for _printf_core
    printfb.o(i.__0vsnprintf$bare) refers to printfb.o(i._snputc) for _snputc
    printfb.o(i.__0vsprintf$bare) refers to printfb.o(i._printf_core) for _printf_core
    printfb.o(i.__0vsprintf$bare) refers to printfb.o(i._sputc) for _sputc
    printf0.o(i.__0fprintf$0) refers to printf0.o(i._printf_core) for _printf_core
    printf0.o(i.__0fprintf$0) refers to usart.o(i.fputc) for fputc
    printf0.o(i.__0printf$0) refers to printf0.o(i._printf_core) for _printf_core
    printf0.o(i.__0printf$0) refers to usart.o(i.fputc) for fputc
    printf0.o(i.__0printf$0) refers to usart.o(.data) for __stdout
    printf0.o(i.__0snprintf$0) refers to printf0.o(i._printf_core) for _printf_core
    printf0.o(i.__0snprintf$0) refers to printf0.o(i._snputc) for _snputc
    printf0.o(i.__0sprintf$0) refers to printf0.o(i._printf_core) for _printf_core
    printf0.o(i.__0sprintf$0) refers to printf0.o(i._sputc) for _sputc
    printf0.o(i.__0vfprintf$0) refers to printf0.o(i._printf_core) for _printf_core
    printf0.o(i.__0vfprintf$0) refers to usart.o(i.fputc) for fputc
    printf0.o(i.__0vprintf$0) refers to printf0.o(i._printf_core) for _printf_core
    printf0.o(i.__0vprintf$0) refers to usart.o(i.fputc) for fputc
    printf0.o(i.__0vprintf$0) refers to usart.o(.data) for __stdout
    printf0.o(i.__0vsnprintf$0) refers to printf0.o(i._printf_core) for _printf_core
    printf0.o(i.__0vsnprintf$0) refers to printf0.o(i._snputc) for _snputc
    printf0.o(i.__0vsprintf$0) refers to printf0.o(i._printf_core) for _printf_core
    printf0.o(i.__0vsprintf$0) refers to printf0.o(i._sputc) for _sputc
    printf1.o(i.__0fprintf$1) refers to printf1.o(i._printf_core) for _printf_core
    printf1.o(i.__0fprintf$1) refers to usart.o(i.fputc) for fputc
    printf1.o(i.__0printf$1) refers to printf1.o(i._printf_core) for _printf_core
    printf1.o(i.__0printf$1) refers to usart.o(i.fputc) for fputc
    printf1.o(i.__0printf$1) refers to usart.o(.data) for __stdout
    printf1.o(i.__0snprintf$1) refers to printf1.o(i._printf_core) for _printf_core
    printf1.o(i.__0snprintf$1) refers to printf1.o(i._snputc) for _snputc
    printf1.o(i.__0sprintf$1) refers to printf1.o(i._printf_core) for _printf_core
    printf1.o(i.__0sprintf$1) refers to printf1.o(i._sputc) for _sputc
    printf1.o(i.__0vfprintf$1) refers to printf1.o(i._printf_core) for _printf_core
    printf1.o(i.__0vfprintf$1) refers to usart.o(i.fputc) for fputc
    printf1.o(i.__0vprintf$1) refers to printf1.o(i._printf_core) for _printf_core
    printf1.o(i.__0vprintf$1) refers to usart.o(i.fputc) for fputc
    printf1.o(i.__0vprintf$1) refers to usart.o(.data) for __stdout
    printf1.o(i.__0vsnprintf$1) refers to printf1.o(i._printf_core) for _printf_core
    printf1.o(i.__0vsnprintf$1) refers to printf1.o(i._snputc) for _snputc
    printf1.o(i.__0vsprintf$1) refers to printf1.o(i._printf_core) for _printf_core
    printf1.o(i.__0vsprintf$1) refers to printf1.o(i._sputc) for _sputc
    printf1.o(i._printf_core) refers to uidiv.o(.text) for __aeabi_uidivmod
    printf2.o(i.__0fprintf$2) refers to printf2.o(i._printf_core) for _printf_core
    printf2.o(i.__0fprintf$2) refers to usart.o(i.fputc) for fputc
    printf2.o(i.__0printf$2) refers to printf2.o(i._printf_core) for _printf_core
    printf2.o(i.__0printf$2) refers to usart.o(i.fputc) for fputc
    printf2.o(i.__0printf$2) refers to usart.o(.data) for __stdout
    printf2.o(i.__0snprintf$2) refers to printf2.o(i._printf_core) for _printf_core
    printf2.o(i.__0snprintf$2) refers to printf2.o(i._snputc) for _snputc
    printf2.o(i.__0sprintf$2) refers to printf2.o(i._printf_core) for _printf_core
    printf2.o(i.__0sprintf$2) refers to printf2.o(i._sputc) for _sputc
    printf2.o(i.__0vfprintf$2) refers to printf2.o(i._printf_core) for _printf_core
    printf2.o(i.__0vfprintf$2) refers to usart.o(i.fputc) for fputc
    printf2.o(i.__0vprintf$2) refers to printf2.o(i._printf_core) for _printf_core
    printf2.o(i.__0vprintf$2) refers to usart.o(i.fputc) for fputc
    printf2.o(i.__0vprintf$2) refers to usart.o(.data) for __stdout
    printf2.o(i.__0vsnprintf$2) refers to printf2.o(i._printf_core) for _printf_core
    printf2.o(i.__0vsnprintf$2) refers to printf2.o(i._snputc) for _snputc
    printf2.o(i.__0vsprintf$2) refers to printf2.o(i._printf_core) for _printf_core
    printf2.o(i.__0vsprintf$2) refers to printf2.o(i._sputc) for _sputc
    printf3.o(i.__0fprintf$3) refers to printf3.o(i._printf_core) for _printf_core
    printf3.o(i.__0fprintf$3) refers to usart.o(i.fputc) for fputc
    printf3.o(i.__0printf$3) refers to printf3.o(i._printf_core) for _printf_core
    printf3.o(i.__0printf$3) refers to usart.o(i.fputc) for fputc
    printf3.o(i.__0printf$3) refers to usart.o(.data) for __stdout
    printf3.o(i.__0snprintf$3) refers to printf3.o(i._printf_core) for _printf_core
    printf3.o(i.__0snprintf$3) refers to printf3.o(i._snputc) for _snputc
    printf3.o(i.__0sprintf$3) refers to printf3.o(i._printf_core) for _printf_core
    printf3.o(i.__0sprintf$3) refers to printf3.o(i._sputc) for _sputc
    printf3.o(i.__0vfprintf$3) refers to printf3.o(i._printf_core) for _printf_core
    printf3.o(i.__0vfprintf$3) refers to usart.o(i.fputc) for fputc
    printf3.o(i.__0vprintf$3) refers to printf3.o(i._printf_core) for _printf_core
    printf3.o(i.__0vprintf$3) refers to usart.o(i.fputc) for fputc
    printf3.o(i.__0vprintf$3) refers to usart.o(.data) for __stdout
    printf3.o(i.__0vsnprintf$3) refers to printf3.o(i._printf_core) for _printf_core
    printf3.o(i.__0vsnprintf$3) refers to printf3.o(i._snputc) for _snputc
    printf3.o(i.__0vsprintf$3) refers to printf3.o(i._printf_core) for _printf_core
    printf3.o(i.__0vsprintf$3) refers to printf3.o(i._sputc) for _sputc
    printf3.o(i._printf_core) refers to uidiv.o(.text) for __aeabi_uidivmod
    printf4.o(i.__0fprintf$4) refers to printf4.o(i._printf_core) for _printf_core
    printf4.o(i.__0fprintf$4) refers to usart.o(i.fputc) for fputc
    printf4.o(i.__0printf$4) refers to printf4.o(i._printf_core) for _printf_core
    printf4.o(i.__0printf$4) refers to usart.o(i.fputc) for fputc
    printf4.o(i.__0printf$4) refers to usart.o(.data) for __stdout
    printf4.o(i.__0snprintf$4) refers to printf4.o(i._printf_core) for _printf_core
    printf4.o(i.__0snprintf$4) refers to printf4.o(i._snputc) for _snputc
    printf4.o(i.__0sprintf$4) refers to printf4.o(i._printf_core) for _printf_core
    printf4.o(i.__0sprintf$4) refers to printf4.o(i._sputc) for _sputc
    printf4.o(i.__0vfprintf$4) refers to printf4.o(i._printf_core) for _printf_core
    printf4.o(i.__0vfprintf$4) refers to usart.o(i.fputc) for fputc
    printf4.o(i.__0vprintf$4) refers to printf4.o(i._printf_core) for _printf_core
    printf4.o(i.__0vprintf$4) refers to usart.o(i.fputc) for fputc
    printf4.o(i.__0vprintf$4) refers to usart.o(.data) for __stdout
    printf4.o(i.__0vsnprintf$4) refers to printf4.o(i._printf_core) for _printf_core
    printf4.o(i.__0vsnprintf$4) refers to printf4.o(i._snputc) for _snputc
    printf4.o(i.__0vsprintf$4) refers to printf4.o(i._printf_core) for _printf_core
    printf4.o(i.__0vsprintf$4) refers to printf4.o(i._sputc) for _sputc
    printf4.o(i._printf_core) refers to uldiv.o(.text) for __aeabi_uldivmod
    printf5.o(i.__0fprintf$5) refers to printf5.o(i._printf_core) for _printf_core
    printf5.o(i.__0fprintf$5) refers to usart.o(i.fputc) for fputc
    printf5.o(i.__0printf$5) refers to printf5.o(i._printf_core) for _printf_core
    printf5.o(i.__0printf$5) refers to usart.o(i.fputc) for fputc
    printf5.o(i.__0printf$5) refers to usart.o(.data) for __stdout
    printf5.o(i.__0snprintf$5) refers to printf5.o(i._printf_core) for _printf_core
    printf5.o(i.__0snprintf$5) refers to printf5.o(i._snputc) for _snputc
    printf5.o(i.__0sprintf$5) refers to printf5.o(i._printf_core) for _printf_core
    printf5.o(i.__0sprintf$5) refers to printf5.o(i._sputc) for _sputc
    printf5.o(i.__0vfprintf$5) refers to printf5.o(i._printf_core) for _printf_core
    printf5.o(i.__0vfprintf$5) refers to usart.o(i.fputc) for fputc
    printf5.o(i.__0vprintf$5) refers to printf5.o(i._printf_core) for _printf_core
    printf5.o(i.__0vprintf$5) refers to usart.o(i.fputc) for fputc
    printf5.o(i.__0vprintf$5) refers to usart.o(.data) for __stdout
    printf5.o(i.__0vsnprintf$5) refers to printf5.o(i._printf_core) for _printf_core
    printf5.o(i.__0vsnprintf$5) refers to printf5.o(i._snputc) for _snputc
    printf5.o(i.__0vsprintf$5) refers to printf5.o(i._printf_core) for _printf_core
    printf5.o(i.__0vsprintf$5) refers to printf5.o(i._sputc) for _sputc
    printf5.o(i._printf_core) refers to uldiv.o(.text) for __aeabi_uldivmod
    printf6.o(i.__0fprintf$6) refers to printf6.o(i._printf_core) for _printf_core
    printf6.o(i.__0fprintf$6) refers to usart.o(i.fputc) for fputc
    printf6.o(i.__0printf$6) refers to printf6.o(i._printf_core) for _printf_core
    printf6.o(i.__0printf$6) refers to usart.o(i.fputc) for fputc
    printf6.o(i.__0printf$6) refers to usart.o(.data) for __stdout
    printf6.o(i.__0snprintf$6) refers to printf6.o(i._printf_core) for _printf_core
    printf6.o(i.__0snprintf$6) refers to printf6.o(i._snputc) for _snputc
    printf6.o(i.__0sprintf$6) refers to printf6.o(i._printf_core) for _printf_core
    printf6.o(i.__0sprintf$6) refers to printf6.o(i._sputc) for _sputc
    printf6.o(i.__0vfprintf$6) refers to printf6.o(i._printf_core) for _printf_core
    printf6.o(i.__0vfprintf$6) refers to usart.o(i.fputc) for fputc
    printf6.o(i.__0vprintf$6) refers to printf6.o(i._printf_core) for _printf_core
    printf6.o(i.__0vprintf$6) refers to usart.o(i.fputc) for fputc
    printf6.o(i.__0vprintf$6) refers to usart.o(.data) for __stdout
    printf6.o(i.__0vsnprintf$6) refers to printf6.o(i._printf_core) for _printf_core
    printf6.o(i.__0vsnprintf$6) refers to printf6.o(i._snputc) for _snputc
    printf6.o(i.__0vsprintf$6) refers to printf6.o(i._printf_core) for _printf_core
    printf6.o(i.__0vsprintf$6) refers to printf6.o(i._sputc) for _sputc
    printf6.o(i._printf_core) refers to printf6.o(i._printf_pre_padding) for _printf_pre_padding
    printf6.o(i._printf_core) refers to uidiv.o(.text) for __aeabi_uidivmod
    printf6.o(i._printf_core) refers to printf6.o(i._printf_post_padding) for _printf_post_padding
    printf7.o(i.__0fprintf$7) refers to printf7.o(i._printf_core) for _printf_core
    printf7.o(i.__0fprintf$7) refers to usart.o(i.fputc) for fputc
    printf7.o(i.__0printf$7) refers to printf7.o(i._printf_core) for _printf_core
    printf7.o(i.__0printf$7) refers to usart.o(i.fputc) for fputc
    printf7.o(i.__0printf$7) refers to usart.o(.data) for __stdout
    printf7.o(i.__0snprintf$7) refers to printf7.o(i._printf_core) for _printf_core
    printf7.o(i.__0snprintf$7) refers to printf7.o(i._snputc) for _snputc
    printf7.o(i.__0sprintf$7) refers to printf7.o(i._printf_core) for _printf_core
    printf7.o(i.__0sprintf$7) refers to printf7.o(i._sputc) for _sputc
    printf7.o(i.__0vfprintf$7) refers to printf7.o(i._printf_core) for _printf_core
    printf7.o(i.__0vfprintf$7) refers to usart.o(i.fputc) for fputc
    printf7.o(i.__0vprintf$7) refers to printf7.o(i._printf_core) for _printf_core
    printf7.o(i.__0vprintf$7) refers to usart.o(i.fputc) for fputc
    printf7.o(i.__0vprintf$7) refers to usart.o(.data) for __stdout
    printf7.o(i.__0vsnprintf$7) refers to printf7.o(i._printf_core) for _printf_core
    printf7.o(i.__0vsnprintf$7) refers to printf7.o(i._snputc) for _snputc
    printf7.o(i.__0vsprintf$7) refers to printf7.o(i._printf_core) for _printf_core
    printf7.o(i.__0vsprintf$7) refers to printf7.o(i._sputc) for _sputc
    printf7.o(i._printf_core) refers to printf7.o(i._printf_pre_padding) for _printf_pre_padding
    printf7.o(i._printf_core) refers to uldiv.o(.text) for __aeabi_uldivmod
    printf7.o(i._printf_core) refers to printf7.o(i._printf_post_padding) for _printf_post_padding
    printf8.o(i.__0fprintf$8) refers to printf8.o(i._printf_core) for _printf_core
    printf8.o(i.__0fprintf$8) refers to usart.o(i.fputc) for fputc
    printf8.o(i.__0printf$8) refers to printf8.o(i._printf_core) for _printf_core
    printf8.o(i.__0printf$8) refers to usart.o(i.fputc) for fputc
    printf8.o(i.__0printf$8) refers to usart.o(.data) for __stdout
    printf8.o(i.__0snprintf$8) refers to printf8.o(i._printf_core) for _printf_core
    printf8.o(i.__0snprintf$8) refers to printf8.o(i._snputc) for _snputc
    printf8.o(i.__0sprintf$8) refers to printf8.o(i._printf_core) for _printf_core
    printf8.o(i.__0sprintf$8) refers to printf8.o(i._sputc) for _sputc
    printf8.o(i.__0vfprintf$8) refers to printf8.o(i._printf_core) for _printf_core
    printf8.o(i.__0vfprintf$8) refers to usart.o(i.fputc) for fputc
    printf8.o(i.__0vprintf$8) refers to printf8.o(i._printf_core) for _printf_core
    printf8.o(i.__0vprintf$8) refers to usart.o(i.fputc) for fputc
    printf8.o(i.__0vprintf$8) refers to usart.o(.data) for __stdout
    printf8.o(i.__0vsnprintf$8) refers to printf8.o(i._printf_core) for _printf_core
    printf8.o(i.__0vsnprintf$8) refers to printf8.o(i._snputc) for _snputc
    printf8.o(i.__0vsprintf$8) refers to printf8.o(i._printf_core) for _printf_core
    printf8.o(i.__0vsprintf$8) refers to printf8.o(i._sputc) for _sputc
    printf8.o(i._printf_core) refers to printf8.o(i._printf_pre_padding) for _printf_pre_padding
    printf8.o(i._printf_core) refers to uldiv.o(.text) for __aeabi_uldivmod
    printf8.o(i._printf_core) refers to printf8.o(i._printf_post_padding) for _printf_post_padding
    printfa.o(i.__0fprintf) refers (Special) to iusefp.o(.text) for __I$use$fp
    printfa.o(i.__0fprintf) refers to printfa.o(i._printf_core) for _printf_core
    printfa.o(i.__0fprintf) refers to usart.o(i.fputc) for fputc
    printfa.o(i.__0printf) refers (Special) to iusefp.o(.text) for __I$use$fp
    printfa.o(i.__0printf) refers to printfa.o(i._printf_core) for _printf_core
    printfa.o(i.__0printf) refers to usart.o(i.fputc) for fputc
    printfa.o(i.__0printf) refers to usart.o(.data) for __stdout
    printfa.o(i.__0snprintf) refers (Special) to iusefp.o(.text) for __I$use$fp
    printfa.o(i.__0snprintf) refers to printfa.o(i._printf_core) for _printf_core
    printfa.o(i.__0snprintf) refers to printfa.o(i._snputc) for _snputc
    printfa.o(i.__0sprintf) refers (Special) to iusefp.o(.text) for __I$use$fp
    printfa.o(i.__0sprintf) refers to printfa.o(i._printf_core) for _printf_core
    printfa.o(i.__0sprintf) refers to printfa.o(i._sputc) for _sputc
    printfa.o(i.__0vfprintf) refers (Special) to iusefp.o(.text) for __I$use$fp
    printfa.o(i.__0vfprintf) refers to printfa.o(i._printf_core) for _printf_core
    printfa.o(i.__0vfprintf) refers to usart.o(i.fputc) for fputc
    printfa.o(i.__0vprintf) refers (Special) to iusefp.o(.text) for __I$use$fp
    printfa.o(i.__0vprintf) refers to printfa.o(i._printf_core) for _printf_core
    printfa.o(i.__0vprintf) refers to usart.o(i.fputc) for fputc
    printfa.o(i.__0vprintf) refers to usart.o(.data) for __stdout
    printfa.o(i.__0vsnprintf) refers (Special) to iusefp.o(.text) for __I$use$fp
    printfa.o(i.__0vsnprintf) refers to printfa.o(i._printf_core) for _printf_core
    printfa.o(i.__0vsnprintf) refers to printfa.o(i._snputc) for _snputc
    printfa.o(i.__0vsprintf) refers (Special) to iusefp.o(.text) for __I$use$fp
    printfa.o(i.__0vsprintf) refers to printfa.o(i._printf_core) for _printf_core
    printfa.o(i.__0vsprintf) refers to printfa.o(i._sputc) for _sputc
    printfa.o(i._fp_digits) refers (Special) to iusefp.o(.text) for __I$use$fp
    printfa.o(i._fp_digits) refers to dmul.o(.text) for __aeabi_dmul
    printfa.o(i._fp_digits) refers to ddiv.o(.text) for __aeabi_ddiv
    printfa.o(i._fp_digits) refers to cdrcmple.o(.text) for __aeabi_cdrcmple
    printfa.o(i._fp_digits) refers to dadd.o(.text) for __aeabi_dadd
    printfa.o(i._fp_digits) refers to dfixul.o(.text) for __aeabi_d2ulz
    printfa.o(i._fp_digits) refers to uldiv.o(.text) for __aeabi_uldivmod
    printfa.o(i._printf_core) refers (Special) to iusefp.o(.text) for __I$use$fp
    printfa.o(i._printf_core) refers to printfa.o(i._printf_pre_padding) for _printf_pre_padding
    printfa.o(i._printf_core) refers to uldiv.o(.text) for __aeabi_uldivmod
    printfa.o(i._printf_core) refers to printfa.o(i._printf_post_padding) for _printf_post_padding
    printfa.o(i._printf_core) refers to printfa.o(i._fp_digits) for _fp_digits
    printfa.o(i._printf_core) refers to uidiv.o(.text) for __aeabi_uidivmod
    printfa.o(i._printf_post_padding) refers (Special) to iusefp.o(.text) for __I$use$fp
    printfa.o(i._printf_pre_padding) refers (Special) to iusefp.o(.text) for __I$use$fp
    printfa.o(i._snputc) refers (Special) to iusefp.o(.text) for __I$use$fp
    printfa.o(i._sputc) refers (Special) to iusefp.o(.text) for __I$use$fp
    malloc.o(i.free) refers to mvars.o(.data) for __microlib_freelist
    malloc.o(i.malloc) refers to mvars.o(.data) for __microlib_freelist_initialised
    malloc.o(i.malloc) refers to mvars.o(.data) for __microlib_freelist
    malloc.o(i.malloc) refers to startup_stm32f4xx.o(HEAP) for __heap_base
    mallocr.o(i.__free$realloc) refers to mvars.o(.data) for __microlib_freelist
    mallocr.o(i.__malloc$realloc) refers to mallocr.o(i.internal_alloc) for internal_alloc
    mallocr.o(i.__malloc$realloc) refers to mvars.o(.data) for __microlib_freelist_initialised
    mallocr.o(i.__malloc$realloc) refers to startup_stm32f4xx.o(HEAP) for __heap_base
    mallocr.o(i.__malloc$realloc) refers to mvars.o(.data) for __microlib_freelist
    mallocr.o(i.internal_alloc) refers to memmovea.o(.text) for __aeabi_memcpy
    mallocr.o(i.internal_alloc) refers to mvars.o(.data) for __microlib_freelist
    mallocr.o(i.realloc) refers to mallocr.o(i.__free$realloc) for __free$realloc
    mallocr.o(i.realloc) refers to mallocr.o(i.internal_alloc) for internal_alloc
    mallocr.o(i.realloc) refers to mallocr.o(i.__malloc$realloc) for __malloc$realloc
    mallocr.o(i.realloc) refers to mvars.o(.data) for __microlib_freelist
    malloca.o(i.__aligned_malloc) refers to mvars.o(.data) for __microlib_freelist_initialised
    malloca.o(i.__aligned_malloc) refers to mvars.o(.data) for __microlib_freelist
    malloca.o(i.__aligned_malloc) refers to startup_stm32f4xx.o(HEAP) for __heap_base
    malloca.o(i.__free$memalign) refers to mvars.o(.data) for __microlib_freelist
    malloca.o(i.__malloc$memalign) refers to malloca.o(i.__aligned_malloc) for __aligned_malloc
    mallocra.o(i.__aligned_malloc$realloc) refers to mallocra.o(i.internal_alloc) for internal_alloc
    mallocra.o(i.__aligned_malloc$realloc) refers to mvars.o(.data) for __microlib_freelist_initialised
    mallocra.o(i.__aligned_malloc$realloc) refers to startup_stm32f4xx.o(HEAP) for __heap_base
    mallocra.o(i.__aligned_malloc$realloc) refers to mvars.o(.data) for __microlib_freelist
    mallocra.o(i.__free$realloc$memalign) refers to mvars.o(.data) for __microlib_freelist
    mallocra.o(i.__malloc$realloc$memalign) refers to mallocra.o(i.__aligned_malloc$realloc) for __aligned_malloc$realloc
    mallocra.o(i.__realloc$memalign) refers to mallocra.o(i.__free$realloc$memalign) for __free$realloc$memalign
    mallocra.o(i.__realloc$memalign) refers to mallocra.o(i.internal_alloc) for internal_alloc
    mallocra.o(i.__realloc$memalign) refers to mallocra.o(i.__malloc$realloc$memalign) for __malloc$realloc$memalign
    mallocra.o(i.__realloc$memalign) refers to mvars.o(.data) for __microlib_freelist
    mallocra.o(i.internal_alloc) refers to memmovea.o(.text) for __aeabi_memcpy
    mallocra.o(i.internal_alloc) refers to mvars.o(.data) for __microlib_freelist
    entry2.o(.ARM.Collect$$$$00000001) refers to entry2.o(.ARM.Collect$$$$00002712) for __lit__00000000
    entry2.o(.ARM.Collect$$$$00002712) refers to startup_stm32f4xx.o(STACK) for __initial_sp
    entry2.o(__vectab_stack_and_reset_area) refers to startup_stm32f4xx.o(STACK) for __initial_sp
    entry2.o(__vectab_stack_and_reset_area) refers to entry.o(.ARM.Collect$$$$00000000) for __main
    entry5.o(.ARM.Collect$$$$00000004) refers to init.o(.text) for __scatterload
    entry9a.o(.ARM.Collect$$$$0000000B) refers to main.o(i.main) for main
    entry9b.o(.ARM.Collect$$$$0000000C) refers to main.o(i.main) for main
    uldiv.o(.text) refers to llushr.o(.text) for __aeabi_llsr
    uldiv.o(.text) refers to llshl.o(.text) for __aeabi_llsl
    dadd.o(.text) refers to llshl.o(.text) for __aeabi_llsl
    dadd.o(.text) refers to llsshr.o(.text) for __aeabi_lasr
    dadd.o(.text) refers to depilogue.o(.text) for _double_epilogue
    dmul.o(.text) refers to depilogue.o(.text) for _double_epilogue
    ddiv.o(.text) refers to depilogue.o(.text) for _double_round
    dfixul.o(.text) refers to llushr.o(.text) for __aeabi_llsr
    dfixul.o(.text) refers to llshl.o(.text) for __aeabi_llsl
    init.o(.text) refers to entry5.o(.ARM.Collect$$$$00000004) for __main_after_scatterload
    depilogue.o(.text) refers to llshl.o(.text) for __aeabi_llsl
    depilogue.o(.text) refers to llushr.o(.text) for __aeabi_llsr


==============================================================================

Removing Unused input sections from the image.

    Removing main.o(.emb_text), (8 bytes).
    Removing stm32f4xx_it.o(.emb_text), (8 bytes).
    Removing system_stm32f4xx.o(.emb_text), (8 bytes).
    Removing system_stm32f4xx.o(i.SystemCoreClockUpdate), (192 bytes).
    Removing usb_bsp.o(.emb_text), (8 bytes).
    Removing usbh_usr.o(.emb_text), (8 bytes).
    Removing producttest.o(.emb_text), (8 bytes).
    Removing misc.o(.emb_text), (8 bytes).
    Removing misc.o(i.NVIC_SystemLPConfig), (32 bytes).
    Removing stm32f4xx_dac.o(.emb_text), (8 bytes).
    Removing stm32f4xx_dac.o(i.DAC_ClearFlag), (16 bytes).
    Removing stm32f4xx_dac.o(i.DAC_ClearITPendingBit), (16 bytes).
    Removing stm32f4xx_dac.o(i.DAC_DMACmd), (44 bytes).
    Removing stm32f4xx_dac.o(i.DAC_DeInit), (22 bytes).
    Removing stm32f4xx_dac.o(i.DAC_DualSoftwareTriggerCmd), (36 bytes).
    Removing stm32f4xx_dac.o(i.DAC_GetDataOutputValue), (36 bytes).
    Removing stm32f4xx_dac.o(i.DAC_GetFlagStatus), (32 bytes).
    Removing stm32f4xx_dac.o(i.DAC_GetITStatus), (48 bytes).
    Removing stm32f4xx_dac.o(i.DAC_ITConfig), (40 bytes).
    Removing stm32f4xx_dac.o(i.DAC_SetChannel2Data), (32 bytes).
    Removing stm32f4xx_dac.o(i.DAC_SetDualChannelData), (36 bytes).
    Removing stm32f4xx_dac.o(i.DAC_SoftwareTriggerCmd), (44 bytes).
    Removing stm32f4xx_dac.o(i.DAC_StructInit), (12 bytes).
    Removing stm32f4xx_dac.o(i.DAC_WaveGenerationCmd), (40 bytes).
    Removing stm32f4xx_dma.o(.emb_text), (8 bytes).
    Removing stm32f4xx_dma.o(i.DMA_ClearITPendingBit), (52 bytes).
    Removing stm32f4xx_dma.o(i.DMA_DoubleBufferModeCmd), (22 bytes).
    Removing stm32f4xx_dma.o(i.DMA_DoubleBufferModeConfig), (24 bytes).
    Removing stm32f4xx_dma.o(i.DMA_FlowControllerConfig), (22 bytes).
    Removing stm32f4xx_dma.o(i.DMA_GetCurrDataCounter), (8 bytes).
    Removing stm32f4xx_dma.o(i.DMA_GetCurrentMemoryTarget), (20 bytes).
    Removing stm32f4xx_dma.o(i.DMA_GetFIFOStatus), (12 bytes).
    Removing stm32f4xx_dma.o(i.DMA_GetITStatus), (100 bytes).
    Removing stm32f4xx_dma.o(i.DMA_MemoryTargetConfig), (10 bytes).
    Removing stm32f4xx_dma.o(i.DMA_PeriphIncOffsetSizeConfig), (22 bytes).
    Removing stm32f4xx_dma.o(i.DMA_SetCurrDataCounter), (4 bytes).
    Removing stm32f4xx_dma.o(i.DMA_StructInit), (34 bytes).
    Removing stm32f4xx_exti.o(.emb_text), (8 bytes).
    Removing stm32f4xx_exti.o(i.EXTI_ClearFlag), (12 bytes).
    Removing stm32f4xx_exti.o(i.EXTI_DeInit), (36 bytes).
    Removing stm32f4xx_exti.o(i.EXTI_GenerateSWInterrupt), (16 bytes).
    Removing stm32f4xx_exti.o(i.EXTI_GetFlagStatus), (24 bytes).
    Removing stm32f4xx_exti.o(i.EXTI_Init), (148 bytes).
    Removing stm32f4xx_exti.o(i.EXTI_StructInit), (16 bytes).
    Removing stm32f4xx_gpio.o(.emb_text), (8 bytes).
    Removing stm32f4xx_gpio.o(i.GPIO_DeInit), (256 bytes).
    Removing stm32f4xx_gpio.o(i.GPIO_PinLockConfig), (34 bytes).
    Removing stm32f4xx_gpio.o(i.GPIO_ReadInputData), (8 bytes).
    Removing stm32f4xx_gpio.o(i.GPIO_ReadInputDataBit), (18 bytes).
    Removing stm32f4xx_gpio.o(i.GPIO_ReadOutputData), (8 bytes).
    Removing stm32f4xx_gpio.o(i.GPIO_ReadOutputDataBit), (18 bytes).
    Removing stm32f4xx_gpio.o(i.GPIO_StructInit), (18 bytes).
    Removing stm32f4xx_gpio.o(i.GPIO_ToggleBits), (8 bytes).
    Removing stm32f4xx_gpio.o(i.GPIO_Write), (4 bytes).
    Removing stm32f4xx_i2c.o(.emb_text), (8 bytes).
    Removing stm32f4xx_i2c.o(i.I2C_ARPCmd), (24 bytes).
    Removing stm32f4xx_i2c.o(i.I2C_CalculatePEC), (24 bytes).
    Removing stm32f4xx_i2c.o(i.I2C_ClearITPendingBit), (12 bytes).
    Removing stm32f4xx_i2c.o(i.I2C_DMACmd), (24 bytes).
    Removing stm32f4xx_i2c.o(i.I2C_DMALastTransferCmd), (24 bytes).
    Removing stm32f4xx_i2c.o(i.I2C_DualAddressCmd), (24 bytes).
    Removing stm32f4xx_i2c.o(i.I2C_FastModeDutyCycleConfig), (28 bytes).
    Removing stm32f4xx_i2c.o(i.I2C_GeneralCallCmd), (24 bytes).
    Removing stm32f4xx_i2c.o(i.I2C_GetITStatus), (38 bytes).
    Removing stm32f4xx_i2c.o(i.I2C_GetLastEvent), (26 bytes).
    Removing stm32f4xx_i2c.o(i.I2C_GetPEC), (8 bytes).
    Removing stm32f4xx_i2c.o(i.I2C_ITConfig), (18 bytes).
    Removing stm32f4xx_i2c.o(i.I2C_NACKPositionConfig), (28 bytes).
    Removing stm32f4xx_i2c.o(i.I2C_OwnAddress2Config), (22 bytes).
    Removing stm32f4xx_i2c.o(i.I2C_PECPositionConfig), (28 bytes).
    Removing stm32f4xx_i2c.o(i.I2C_ReadRegister), (22 bytes).
    Removing stm32f4xx_i2c.o(i.I2C_SMBusAlertConfig), (28 bytes).
    Removing stm32f4xx_i2c.o(i.I2C_SoftwareResetCmd), (22 bytes).
    Removing stm32f4xx_i2c.o(i.I2C_StretchClockCmd), (24 bytes).
    Removing stm32f4xx_i2c.o(i.I2C_StructInit), (30 bytes).
    Removing stm32f4xx_i2c.o(i.I2C_TransmitPEC), (24 bytes).
    Removing stm32f4xx_rcc.o(.emb_text), (8 bytes).
    Removing stm32f4xx_rcc.o(i.RCC_AHB1PeriphClockLPModeCmd), (32 bytes).
    Removing stm32f4xx_rcc.o(i.RCC_AHB1PeriphResetCmd), (32 bytes).
    Removing stm32f4xx_rcc.o(i.RCC_AHB2PeriphClockLPModeCmd), (32 bytes).
    Removing stm32f4xx_rcc.o(i.RCC_AHB2PeriphResetCmd), (32 bytes).
    Removing stm32f4xx_rcc.o(i.RCC_AHB3PeriphClockCmd), (32 bytes).
    Removing stm32f4xx_rcc.o(i.RCC_AHB3PeriphClockLPModeCmd), (32 bytes).
    Removing stm32f4xx_rcc.o(i.RCC_AHB3PeriphResetCmd), (32 bytes).
    Removing stm32f4xx_rcc.o(i.RCC_APB1PeriphClockLPModeCmd), (32 bytes).
    Removing stm32f4xx_rcc.o(i.RCC_APB2PeriphClockLPModeCmd), (32 bytes).
    Removing stm32f4xx_rcc.o(i.RCC_AdjustHSICalibrationValue), (24 bytes).
    Removing stm32f4xx_rcc.o(i.RCC_BackupResetCmd), (12 bytes).
    Removing stm32f4xx_rcc.o(i.RCC_ClearFlag), (20 bytes).
    Removing stm32f4xx_rcc.o(i.RCC_ClearITPendingBit), (12 bytes).
    Removing stm32f4xx_rcc.o(i.RCC_ClockSecuritySystemCmd), (12 bytes).
    Removing stm32f4xx_rcc.o(i.RCC_DeInit), (72 bytes).
    Removing stm32f4xx_rcc.o(i.RCC_GetFlagStatus), (64 bytes).
    Removing stm32f4xx_rcc.o(i.RCC_GetITStatus), (24 bytes).
    Removing stm32f4xx_rcc.o(i.RCC_GetSYSCLKSource), (16 bytes).
    Removing stm32f4xx_rcc.o(i.RCC_HCLKConfig), (24 bytes).
    Removing stm32f4xx_rcc.o(i.RCC_HSEConfig), (16 bytes).
    Removing stm32f4xx_rcc.o(i.RCC_HSICmd), (12 bytes).
    Removing stm32f4xx_rcc.o(i.RCC_I2SCLKConfig), (12 bytes).
    Removing stm32f4xx_rcc.o(i.RCC_ITConfig), (32 bytes).
    Removing stm32f4xx_rcc.o(i.RCC_LSEConfig), (44 bytes).
    Removing stm32f4xx_rcc.o(i.RCC_LSICmd), (12 bytes).
    Removing stm32f4xx_rcc.o(i.RCC_MCO1Config), (28 bytes).
    Removing stm32f4xx_rcc.o(i.RCC_MCO2Config), (28 bytes).
    Removing stm32f4xx_rcc.o(i.RCC_PCLK1Config), (24 bytes).
    Removing stm32f4xx_rcc.o(i.RCC_PCLK2Config), (24 bytes).
    Removing stm32f4xx_rcc.o(i.RCC_PLLCmd), (12 bytes).
    Removing stm32f4xx_rcc.o(i.RCC_PLLConfig), (36 bytes).
    Removing stm32f4xx_rcc.o(i.RCC_PLLI2SCmd), (12 bytes).
    Removing stm32f4xx_rcc.o(i.RCC_PLLI2SConfig), (16 bytes).
    Removing stm32f4xx_rcc.o(i.RCC_RTCCLKCmd), (12 bytes).
    Removing stm32f4xx_rcc.o(i.RCC_RTCCLKConfig), (60 bytes).
    Removing stm32f4xx_rcc.o(i.RCC_SYSCLKConfig), (24 bytes).
    Removing stm32f4xx_rcc.o(i.RCC_WaitForHSEStartUp), (56 bytes).
    Removing stm32f4xx_spi.o(.emb_text), (8 bytes).
    Removing stm32f4xx_spi.o(i.I2S_FullDuplexConfig), (80 bytes).
    Removing stm32f4xx_spi.o(i.I2S_StructInit), (20 bytes).
    Removing stm32f4xx_spi.o(i.SPI_BiDirectionalLineConfig), (28 bytes).
    Removing stm32f4xx_spi.o(i.SPI_CalculateCRC), (24 bytes).
    Removing stm32f4xx_spi.o(i.SPI_DataSizeConfig), (18 bytes).
    Removing stm32f4xx_spi.o(i.SPI_GetCRC), (16 bytes).
    Removing stm32f4xx_spi.o(i.SPI_GetCRCPolynomial), (6 bytes).
    Removing stm32f4xx_spi.o(i.SPI_I2S_ClearFlag), (6 bytes).
    Removing stm32f4xx_spi.o(i.SPI_I2S_ClearITPendingBit), (20 bytes).
    Removing stm32f4xx_spi.o(i.SPI_I2S_GetITStatus), (52 bytes).
    Removing stm32f4xx_spi.o(i.SPI_NSSInternalSoftwareConfig), (30 bytes).
    Removing stm32f4xx_spi.o(i.SPI_SSOutputCmd), (24 bytes).
    Removing stm32f4xx_spi.o(i.SPI_StructInit), (24 bytes).
    Removing stm32f4xx_spi.o(i.SPI_TIModeCmd), (24 bytes).
    Removing stm32f4xx_spi.o(i.SPI_TransmitCRC), (10 bytes).
    Removing stm32f4xx_syscfg.o(.emb_text), (8 bytes).
    Removing stm32f4xx_syscfg.o(i.SYSCFG_CompensationCellCmd), (12 bytes).
    Removing stm32f4xx_syscfg.o(i.SYSCFG_DeInit), (22 bytes).
    Removing stm32f4xx_syscfg.o(i.SYSCFG_ETH_MediaInterfaceConfig), (12 bytes).
    Removing stm32f4xx_syscfg.o(i.SYSCFG_EXTILineConfig), (64 bytes).
    Removing stm32f4xx_syscfg.o(i.SYSCFG_GetCompensationCellStatus), (24 bytes).
    Removing stm32f4xx_syscfg.o(i.SYSCFG_MemoryRemapConfig), (12 bytes).
    Removing stm32f4xx_tim.o(.emb_text), (8 bytes).
    Removing stm32f4xx_tim.o(i.TI1_Config), (58 bytes).
    Removing stm32f4xx_tim.o(i.TI2_Config), (80 bytes).
    Removing stm32f4xx_tim.o(i.TI3_Config), (72 bytes).
    Removing stm32f4xx_tim.o(i.TI4_Config), (80 bytes).
    Removing stm32f4xx_tim.o(i.TIM_BDTRConfig), (32 bytes).
    Removing stm32f4xx_tim.o(i.TIM_BDTRStructInit), (18 bytes).
    Removing stm32f4xx_tim.o(i.TIM_CCPreloadControl), (24 bytes).
    Removing stm32f4xx_tim.o(i.TIM_CCxCmd), (30 bytes).
    Removing stm32f4xx_tim.o(i.TIM_CCxNCmd), (30 bytes).
    Removing stm32f4xx_tim.o(i.TIM_ClearFlag), (6 bytes).
    Removing stm32f4xx_tim.o(i.TIM_ClearOC1Ref), (18 bytes).
    Removing stm32f4xx_tim.o(i.TIM_ClearOC2Ref), (24 bytes).
    Removing stm32f4xx_tim.o(i.TIM_ClearOC3Ref), (18 bytes).
    Removing stm32f4xx_tim.o(i.TIM_ClearOC4Ref), (24 bytes).
    Removing stm32f4xx_tim.o(i.TIM_CounterModeConfig), (18 bytes).
    Removing stm32f4xx_tim.o(i.TIM_CtrlPWMOutputs), (30 bytes).
    Removing stm32f4xx_tim.o(i.TIM_DMACmd), (18 bytes).
    Removing stm32f4xx_tim.o(i.TIM_DMAConfig), (10 bytes).
    Removing stm32f4xx_tim.o(i.TIM_DeInit), (400 bytes).
    Removing stm32f4xx_tim.o(i.TIM_ETRClockMode1Config), (54 bytes).
    Removing stm32f4xx_tim.o(i.TIM_ETRClockMode2Config), (32 bytes).
    Removing stm32f4xx_tim.o(i.TIM_ETRConfig), (28 bytes).
    Removing stm32f4xx_tim.o(i.TIM_EncoderInterfaceConfig), (66 bytes).
    Removing stm32f4xx_tim.o(i.TIM_ForcedOC1Config), (18 bytes).
    Removing stm32f4xx_tim.o(i.TIM_ForcedOC2Config), (26 bytes).
    Removing stm32f4xx_tim.o(i.TIM_ForcedOC3Config), (18 bytes).
    Removing stm32f4xx_tim.o(i.TIM_ForcedOC4Config), (26 bytes).
    Removing stm32f4xx_tim.o(i.TIM_GenerateEvent), (4 bytes).
    Removing stm32f4xx_tim.o(i.TIM_GetCapture2), (6 bytes).
    Removing stm32f4xx_tim.o(i.TIM_GetCapture3), (6 bytes).
    Removing stm32f4xx_tim.o(i.TIM_GetCapture4), (6 bytes).
    Removing stm32f4xx_tim.o(i.TIM_GetCounter), (6 bytes).
    Removing stm32f4xx_tim.o(i.TIM_GetFlagStatus), (18 bytes).
    Removing stm32f4xx_tim.o(i.TIM_GetPrescaler), (6 bytes).
    Removing stm32f4xx_tim.o(i.TIM_ICInit), (110 bytes).
    Removing stm32f4xx_tim.o(i.TIM_ICStructInit), (18 bytes).
    Removing stm32f4xx_tim.o(i.TIM_ITRxExternalClockConfig), (24 bytes).
    Removing stm32f4xx_tim.o(i.TIM_InternalClockConfig), (12 bytes).
    Removing stm32f4xx_tim.o(i.TIM_OC1FastConfig), (18 bytes).
    Removing stm32f4xx_tim.o(i.TIM_OC1Init), (124 bytes).
    Removing stm32f4xx_tim.o(i.TIM_OC1NPolarityConfig), (18 bytes).
    Removing stm32f4xx_tim.o(i.TIM_OC1PolarityConfig), (18 bytes).
    Removing stm32f4xx_tim.o(i.TIM_OC1PreloadConfig), (18 bytes).
    Removing stm32f4xx_tim.o(i.TIM_OC2FastConfig), (26 bytes).
    Removing stm32f4xx_tim.o(i.TIM_OC2Init), (164 bytes).
    Removing stm32f4xx_tim.o(i.TIM_OC2NPolarityConfig), (26 bytes).
    Removing stm32f4xx_tim.o(i.TIM_OC2PolarityConfig), (26 bytes).
    Removing stm32f4xx_tim.o(i.TIM_OC2PreloadConfig), (26 bytes).
    Removing stm32f4xx_tim.o(i.TIM_OC3FastConfig), (18 bytes).
    Removing stm32f4xx_tim.o(i.TIM_OC3Init), (160 bytes).
    Removing stm32f4xx_tim.o(i.TIM_OC3NPolarityConfig), (26 bytes).
    Removing stm32f4xx_tim.o(i.TIM_OC3PolarityConfig), (26 bytes).
    Removing stm32f4xx_tim.o(i.TIM_OC3PreloadConfig), (18 bytes).
    Removing stm32f4xx_tim.o(i.TIM_OC4FastConfig), (26 bytes).
    Removing stm32f4xx_tim.o(i.TIM_OC4Init), (120 bytes).
    Removing stm32f4xx_tim.o(i.TIM_OC4PolarityConfig), (26 bytes).
    Removing stm32f4xx_tim.o(i.TIM_OC4PreloadConfig), (26 bytes).
    Removing stm32f4xx_tim.o(i.TIM_OCStructInit), (20 bytes).
    Removing stm32f4xx_tim.o(i.TIM_PWMIConfig), (124 bytes).
    Removing stm32f4xx_tim.o(i.TIM_PrescalerConfig), (6 bytes).
    Removing stm32f4xx_tim.o(i.TIM_RemapConfig), (6 bytes).
    Removing stm32f4xx_tim.o(i.TIM_SelectCCDMA), (24 bytes).
    Removing stm32f4xx_tim.o(i.TIM_SelectCOM), (24 bytes).
    Removing stm32f4xx_tim.o(i.TIM_SelectHallSensor), (24 bytes).
    Removing stm32f4xx_tim.o(i.TIM_SelectInputTrigger), (18 bytes).
    Removing stm32f4xx_tim.o(i.TIM_SelectMasterSlaveMode), (18 bytes).
    Removing stm32f4xx_tim.o(i.TIM_SelectOCxM), (86 bytes).
    Removing stm32f4xx_tim.o(i.TIM_SelectOnePulseMode), (18 bytes).
    Removing stm32f4xx_tim.o(i.TIM_SelectOutputTrigger), (18 bytes).
    Removing stm32f4xx_tim.o(i.TIM_SelectSlaveMode), (18 bytes).
    Removing stm32f4xx_tim.o(i.TIM_SetAutoreload), (4 bytes).
    Removing stm32f4xx_tim.o(i.TIM_SetClockDivision), (18 bytes).
    Removing stm32f4xx_tim.o(i.TIM_SetCompare2), (4 bytes).
    Removing stm32f4xx_tim.o(i.TIM_SetCompare3), (4 bytes).
    Removing stm32f4xx_tim.o(i.TIM_SetCompare4), (4 bytes).
    Removing stm32f4xx_tim.o(i.TIM_SetCounter), (4 bytes).
    Removing stm32f4xx_tim.o(i.TIM_SetIC1Prescaler), (18 bytes).
    Removing stm32f4xx_tim.o(i.TIM_SetIC2Prescaler), (26 bytes).
    Removing stm32f4xx_tim.o(i.TIM_SetIC3Prescaler), (18 bytes).
    Removing stm32f4xx_tim.o(i.TIM_SetIC4Prescaler), (26 bytes).
    Removing stm32f4xx_tim.o(i.TIM_TIxExternalClockConfig), (62 bytes).
    Removing stm32f4xx_tim.o(i.TIM_TimeBaseStructInit), (18 bytes).
    Removing stm32f4xx_tim.o(i.TIM_UpdateDisableConfig), (24 bytes).
    Removing stm32f4xx_tim.o(i.TIM_UpdateRequestConfig), (24 bytes).
    Removing stm32f4xx_usart.o(.emb_text), (8 bytes).
    Removing stm32f4xx_usart.o(i.USART_ClearITPendingBit), (30 bytes).
    Removing stm32f4xx_usart.o(i.USART_ClockInit), (32 bytes).
    Removing stm32f4xx_usart.o(i.USART_ClockStructInit), (12 bytes).
    Removing stm32f4xx_usart.o(i.USART_DMACmd), (18 bytes).
    Removing stm32f4xx_usart.o(i.USART_DeInit), (180 bytes).
    Removing stm32f4xx_usart.o(i.USART_GetFlagStatus), (26 bytes).
    Removing stm32f4xx_usart.o(i.USART_HalfDuplexCmd), (24 bytes).
    Removing stm32f4xx_usart.o(i.USART_IrDACmd), (24 bytes).
    Removing stm32f4xx_usart.o(i.USART_IrDAConfig), (18 bytes).
    Removing stm32f4xx_usart.o(i.USART_LINBreakDetectLengthConfig), (18 bytes).
    Removing stm32f4xx_usart.o(i.USART_LINCmd), (24 bytes).
    Removing stm32f4xx_usart.o(i.USART_OneBitMethodCmd), (24 bytes).
    Removing stm32f4xx_usart.o(i.USART_OverSampling8Cmd), (22 bytes).
    Removing stm32f4xx_usart.o(i.USART_ReceiverWakeUpCmd), (24 bytes).
    Removing stm32f4xx_usart.o(i.USART_SendBreak), (10 bytes).
    Removing stm32f4xx_usart.o(i.USART_SendData), (8 bytes).
    Removing stm32f4xx_usart.o(i.USART_SetAddress), (18 bytes).
    Removing stm32f4xx_usart.o(i.USART_SetGuardTime), (16 bytes).
    Removing stm32f4xx_usart.o(i.USART_SetPrescaler), (16 bytes).
    Removing stm32f4xx_usart.o(i.USART_SmartCardCmd), (24 bytes).
    Removing stm32f4xx_usart.o(i.USART_SmartCardNACKCmd), (24 bytes).
    Removing stm32f4xx_usart.o(i.USART_StructInit), (24 bytes).
    Removing stm32f4xx_usart.o(i.USART_WakeUpConfig), (18 bytes).
    Removing fattime.o(.emb_text), (8 bytes).
    Removing ff.o(.emb_text), (8 bytes).
    Removing ff.o(i.dir_remove), (96 bytes).
    Removing ff.o(i.f_chmod), (100 bytes).
    Removing ff.o(i.f_close), (22 bytes).
    Removing ff.o(i.f_gets), (82 bytes).
    Removing ff.o(i.f_lseek), (476 bytes).
    Removing ff.o(i.f_mkdir), (400 bytes).
    Removing ff.o(i.f_mkfs), (1708 bytes).
    Removing ff.o(i.f_printf), (434 bytes).
    Removing ff.o(i.f_putc), (54 bytes).
    Removing ff.o(i.f_puts), (42 bytes).
    Removing ff.o(i.f_rename), (298 bytes).
    Removing ff.o(i.f_stat), (66 bytes).
    Removing ff.o(i.f_sync), (184 bytes).
    Removing ff.o(i.f_truncate), (158 bytes).
    Removing ff.o(i.f_unlink), (194 bytes).
    Removing ff.o(i.f_utime), (94 bytes).
    Removing ff.o(i.f_write), (568 bytes).
    Removing ff.o(i.sync), (202 bytes).
    Removing exfuns.o(.emb_text), (8 bytes).
    Removing exfuns.o(.constdata), (112 bytes).
    Removing exfuns.o(.conststring), (68 bytes).
    Removing exfuns.o(.data), (24 bytes).
    Removing diskio.o(.emb_text), (8 bytes).
    Removing mycc936.o(.emb_text), (8 bytes).
    Removing key.o(.emb_text), (8 bytes).
    Removing lcd.o(.emb_text), (8 bytes).
    Removing lcd.o(i.GUI_Fast_DrawPoint), (64 bytes).
    Removing lcd.o(i.LCD_BGR2RGB), (26 bytes).
    Removing lcd.o(i.LCD_ReadPoint), (124 bytes).
    Removing led.o(.emb_text), (8 bytes).
    Removing sd.o(.emb_text), (8 bytes).
    Removing sd.o(i.SD_GetCID), (42 bytes).
    Removing codec.o(.emb_text), (8 bytes).
    Removing codec.o(i.Audio_MAL_DeInit), (60 bytes).
    Removing codec.o(i.Codec_AudioInterface_DeInit), (32 bytes).
    Removing codec.o(i.Codec_CtrlInterface_DeInit), (2 bytes).
    Removing codec.o(i.Codec_DeInit), (34 bytes).
    Removing codec.o(i.Codec_GPIO_DeInit), (108 bytes).
    Removing codec.o(i.Codec_Play), (4 bytes).
    Removing codec.o(i.EVAL_AUDIO_DeInit), (14 bytes).
    Removing codec.o(i.EVAL_AUDIO_Mute), (12 bytes).
    Removing codec.o(i.EVAL_AUDIO_Play), (112 bytes).
    Removing delay.o(.emb_text), (8 bytes).
    Removing sys.o(.emb_text), (24 bytes).
    Removing usart.o(.emb_text), (8 bytes).
    Removing usart.o(i._sys_exit), (6 bytes).
    Removing buffers.o(i.xmp3_FreeBuffers), (2 bytes).
    Removing mp3dec.o(i.MP3FreeDecoder), (20 bytes).
    Removing mp3dec.o(i.MP3GetNextFrameInfo), (60 bytes).
    Removing mp3play.o(.emb_text), (8 bytes).
    Removing mp3play.o(i.AUDIO_TransferComplete), (12 bytes).
    Removing mp3play.o(i.Delay), (24 bytes).
    Removing mp3play.o(i.TimingDelay_Decrement), (24 bytes).
    Removing mp3play.o(i.get_volume), (12 bytes).
    Removing usb_core.o(.emb_text), (8 bytes).
    Removing usb_core.o(i.USB_OTG_IsDeviceMode), (22 bytes).
    Removing usb_core.o(i.USB_OTG_ReadOtgItr), (8 bytes).
    Removing usb_core.o(i.USB_OTG_StopHost), (96 bytes).
    Removing usb_hcd.o(.emb_text), (8 bytes).
    Removing usb_hcd.o(i.HCD_GetHCState), (10 bytes).
    Removing usb_hcd.o(i.HCD_HC_Init), (16 bytes).
    Removing usb_hcd_int.o(.emb_text), (8 bytes).
    Removing usbh_core.o(.emb_text), (8 bytes).
    Removing usbh_hcs.o(.emb_text), (8 bytes).
    Removing usbh_ioreq.o(.emb_text), (8 bytes).
    Removing usbh_ioreq.o(i.USBH_InterruptReceiveData), (120 bytes).
    Removing usbh_ioreq.o(i.USBH_InterruptSendData), (118 bytes).
    Removing usbh_stdreq.o(.emb_text), (8 bytes).
    Removing usbh_msc_bot.o(.emb_text), (8 bytes).
    Removing usbh_msc_core.o(.emb_text), (8 bytes).
    Removing usbh_msc_scsi.o(.emb_text), (8 bytes).
    Removing os_core.o(.emb_text), (8 bytes).
    Removing os_core.o(i.OSVersion), (6 bytes).
    Removing os_core.o(i.OS_EventTaskRdy), (132 bytes).
    Removing os_core.o(i.OS_EventTaskWait), (124 bytes).
    Removing os_core.o(i.OS_EventWaitListInit), (28 bytes).
    Removing os_core.o(i.OS_MemCopy), (20 bytes).
    Removing os_core.o(i.OS_StrLen), (20 bytes).
    Removing os_flag.o(.emb_text), (8 bytes).
    Removing os_flag.o(i.OSFlagAccept), (252 bytes).
    Removing os_flag.o(i.OSFlagCreate), (100 bytes).
    Removing os_flag.o(i.OSFlagDel), (228 bytes).
    Removing os_flag.o(i.OSFlagNameGet), (84 bytes).
    Removing os_flag.o(i.OSFlagNameSet), (72 bytes).
    Removing os_flag.o(i.OSFlagPend), (596 bytes).
    Removing os_flag.o(i.OSFlagPendGetFlagsRdy), (32 bytes).
    Removing os_flag.o(i.OSFlagPost), (312 bytes).
    Removing os_flag.o(i.OSFlagQuery), (48 bytes).
    Removing os_flag.o(i.OS_FlagBlock), (164 bytes).
    Removing os_flag.o(i.OS_FlagTaskRdy), (92 bytes).
    Removing os_mbox.o(.emb_text), (8 bytes).
    Removing os_mbox.o(i.OSMboxAccept), (38 bytes).
    Removing os_mbox.o(i.OSMboxCreate), (76 bytes).
    Removing os_mbox.o(i.OSMboxDel), (208 bytes).
    Removing os_mbox.o(i.OSMboxPend), (260 bytes).
    Removing os_mbox.o(i.OSMboxPendAbort), (128 bytes).
    Removing os_mbox.o(i.OSMboxPost), (80 bytes).
    Removing os_mbox.o(i.OSMboxPostOpt), (120 bytes).
    Removing os_mbox.o(i.OSMboxQuery), (76 bytes).
    Removing os_mem.o(.emb_text), (8 bytes).
    Removing os_mutex.o(.emb_text), (8 bytes).
    Removing os_mutex.o(i.OSMutexAccept), (144 bytes).
    Removing os_mutex.o(i.OSMutexCreate), (148 bytes).
    Removing os_mutex.o(i.OSMutexDel), (280 bytes).
    Removing os_mutex.o(i.OSMutexPend), (568 bytes).
    Removing os_mutex.o(i.OSMutexPost), (200 bytes).
    Removing os_mutex.o(i.OSMutexQuery), (112 bytes).
    Removing os_mutex.o(i.OSMutex_RdyAtPrio), (132 bytes).
    Removing os_q.o(.emb_text), (8 bytes).
    Removing os_q.o(i.OSQAccept), (88 bytes).
    Removing os_q.o(i.OSQCreate), (152 bytes).
    Removing os_q.o(i.OSQDel), (248 bytes).
    Removing os_q.o(i.OSQFlush), (36 bytes).
    Removing os_q.o(i.OSQPend), (284 bytes).
    Removing os_q.o(i.OSQPendAbort), (128 bytes).
    Removing os_q.o(i.OSQPost), (114 bytes).
    Removing os_q.o(i.OSQPostFront), (116 bytes).
    Removing os_q.o(i.OSQPostOpt), (182 bytes).
    Removing os_q.o(i.OSQQuery), (98 bytes).
    Removing os_sem.o(.emb_text), (8 bytes).
    Removing os_sem.o(i.OSSemAccept), (42 bytes).
    Removing os_sem.o(i.OSSemCreate), (76 bytes).
    Removing os_sem.o(i.OSSemDel), (208 bytes).
    Removing os_sem.o(i.OSSemPend), (236 bytes).
    Removing os_sem.o(i.OSSemPendAbort), (128 bytes).
    Removing os_sem.o(i.OSSemPost), (88 bytes).
    Removing os_sem.o(i.OSSemQuery), (76 bytes).
    Removing os_sem.o(i.OSSemSet), (66 bytes).
    Removing os_task.o(.emb_text), (8 bytes).
    Removing os_task.o(i.OSTaskChangePrio), (328 bytes).
    Removing os_task.o(i.OSTaskDelReq), (108 bytes).
    Removing os_task.o(i.OSTaskNameGet), (128 bytes).
    Removing os_task.o(i.OSTaskQuery), (92 bytes).
    Removing os_task.o(i.OSTaskRegGet), (68 bytes).
    Removing os_task.o(i.OSTaskRegSet), (72 bytes).
    Removing os_task.o(i.OSTaskResume), (172 bytes).
    Removing os_time.o(.emb_text), (8 bytes).
    Removing os_time.o(i.OSTimeDlyHMSM), (96 bytes).
    Removing os_time.o(i.OSTimeDlyResume), (180 bytes).
    Removing os_time.o(i.OSTimeGet), (28 bytes).
    Removing os_time.o(i.OSTimeSet), (28 bytes).
    Removing os_tmr.o(.emb_text), (8 bytes).
    Removing os_cpu_c.o(.emb_text), (8 bytes).
    Removing os_cpu_c.o(.data), (4 bytes).
    Removing dadd.o(.text), (334 bytes).
    Removing dmul.o(.text), (228 bytes).
    Removing ddiv.o(.text), (222 bytes).
    Removing dfixul.o(.text), (48 bytes).
    Removing cdrcmple.o(.text), (40 bytes).
    Removing depilogue.o(.text), (182 bytes).

398 unused section(s) (total 23968 bytes) removed from the image.

==============================================================================

Image Symbol Table

    Local Symbols

    Symbol Name                              Value     Ov Type        Size  Object(Section)

    ../clib/../cmprslib/zerorunl2.c          0x00000000   Number         0  __dczerorl2.o ABSOLUTE
    ../clib/microlib/division.c              0x00000000   Number         0  uidiv.o ABSOLUTE
    ../clib/microlib/division.c              0x00000000   Number         0  uldiv.o ABSOLUTE
    ../clib/microlib/init/entry.s            0x00000000   Number         0  entry7b.o ABSOLUTE
    ../clib/microlib/init/entry.s            0x00000000   Number         0  entry.o ABSOLUTE
    ../clib/microlib/init/entry.s            0x00000000   Number         0  entry11a.o ABSOLUTE
    ../clib/microlib/init/entry.s            0x00000000   Number         0  entry10b.o ABSOLUTE
    ../clib/microlib/init/entry.s            0x00000000   Number         0  entry10a.o ABSOLUTE
    ../clib/microlib/init/entry.s            0x00000000   Number         0  entry9b.o ABSOLUTE
    ../clib/microlib/init/entry.s            0x00000000   Number         0  entry11b.o ABSOLUTE
    ../clib/microlib/init/entry.s            0x00000000   Number         0  entry9a.o ABSOLUTE
    ../clib/microlib/init/entry.s            0x00000000   Number         0  entry8b.o ABSOLUTE
    ../clib/microlib/init/entry.s            0x00000000   Number         0  entry7a.o ABSOLUTE
    ../clib/microlib/init/entry.s            0x00000000   Number         0  entry8a.o ABSOLUTE
    ../clib/microlib/init/entry.s            0x00000000   Number         0  entry2.o ABSOLUTE
    ../clib/microlib/init/entry.s            0x00000000   Number         0  entry5.o ABSOLUTE
    ../clib/microlib/longlong.c              0x00000000   Number         0  llshl.o ABSOLUTE
    ../clib/microlib/longlong.c              0x00000000   Number         0  llsshr.o ABSOLUTE
    ../clib/microlib/longlong.c              0x00000000   Number         0  llushr.o ABSOLUTE
    ../clib/microlib/malloc/malloc.c         0x00000000   Number         0  mallocr.o ABSOLUTE
    ../clib/microlib/malloc/malloc.c         0x00000000   Number         0  malloc.o ABSOLUTE
    ../clib/microlib/malloc/malloc.c         0x00000000   Number         0  mallocra.o ABSOLUTE
    ../clib/microlib/malloc/malloc.c         0x00000000   Number         0  malloca.o ABSOLUTE
    ../clib/microlib/malloc/mvars.c          0x00000000   Number         0  mvars.o ABSOLUTE
    ../clib/microlib/printf/printf.c         0x00000000   Number         0  printf6.o ABSOLUTE
    ../clib/microlib/printf/printf.c         0x00000000   Number         0  printf0.o ABSOLUTE
    ../clib/microlib/printf/printf.c         0x00000000   Number         0  printf8.o ABSOLUTE
    ../clib/microlib/printf/printf.c         0x00000000   Number         0  printfa.o ABSOLUTE
    ../clib/microlib/printf/printf.c         0x00000000   Number         0  printfb.o ABSOLUTE
    ../clib/microlib/printf/printf.c         0x00000000   Number         0  printf7.o ABSOLUTE
    ../clib/microlib/printf/printf.c         0x00000000   Number         0  printf1.o ABSOLUTE
    ../clib/microlib/printf/printf.c         0x00000000   Number         0  printf2.o ABSOLUTE
    ../clib/microlib/printf/printf.c         0x00000000   Number         0  printf3.o ABSOLUTE
    ../clib/microlib/printf/printf.c         0x00000000   Number         0  printf4.o ABSOLUTE
    ../clib/microlib/printf/printf.c         0x00000000   Number         0  printf5.o ABSOLUTE
    ../clib/microlib/stdlib/rand.c           0x00000000   Number         0  rand.o ABSOLUTE
    ../clib/microlib/string/memcpy.c         0x00000000   Number         0  memmoveb.o ABSOLUTE
    ../clib/microlib/string/memcpy.c         0x00000000   Number         0  memcpya.o ABSOLUTE
    ../clib/microlib/string/memcpy.c         0x00000000   Number         0  memcpyb.o ABSOLUTE
    ../clib/microlib/string/memcpy.c         0x00000000   Number         0  memmovea.o ABSOLUTE
    ../clib/microlib/string/memset.c         0x00000000   Number         0  memseta.o ABSOLUTE
    ../clib/microlib/string/strcat.c         0x00000000   Number         0  strcat.o ABSOLUTE
    ../clib/microlib/string/strcmp.c         0x00000000   Number         0  strcmp.o ABSOLUTE
    ../clib/microlib/string/strcpy.c         0x00000000   Number         0  strcpy.o ABSOLUTE
    ../clib/microlib/string/strlen.c         0x00000000   Number         0  strlen.o ABSOLUTE
    ../clib/microlib/string/strncmp.c        0x00000000   Number         0  strncmp.o ABSOLUTE
    ../clib/microlib/string/strncpy.c        0x00000000   Number         0  strncpy.o ABSOLUTE
    ../clib/microlib/string/strstr.c         0x00000000   Number         0  strstr.o ABSOLUTE
    ../clib/microlib/stubs.s                 0x00000000   Number         0  useno.o ABSOLUTE
    ../clib/microlib/stubs.s                 0x00000000   Number         0  iusefp.o ABSOLUTE
    ../fplib/microlib/fpadd.c                0x00000000   Number         0  dadd.o ABSOLUTE
    ../fplib/microlib/fpdiv.c                0x00000000   Number         0  ddiv.o ABSOLUTE
    ../fplib/microlib/fpepilogue.c           0x00000000   Number         0  depilogue.o ABSOLUTE
    ../fplib/microlib/fpfix.c                0x00000000   Number         0  dfixul.o ABSOLUTE
    ../fplib/microlib/fpmul.c                0x00000000   Number         0  dmul.o ABSOLUTE
    CORE\startup_stm32f4xx.s                 0x00000000   Number         0  startup_stm32f4xx.o ABSOLUTE
    FATFS\\exfuns\\exfuns.c                  0x00000000   Number         0  exfuns.o ABSOLUTE
    FATFS\\exfuns\\mycc936.c                 0x00000000   Number         0  mycc936.o ABSOLUTE
    FATFS\\src\\diskio.c                     0x00000000   Number         0  diskio.o ABSOLUTE
    FATFS\\src\\fattime.c                    0x00000000   Number         0  fattime.o ABSOLUTE
    FATFS\\src\\ff.c                         0x00000000   Number         0  ff.o ABSOLUTE
    FATFS\exfuns\exfuns.c                    0x00000000   Number         0  exfuns.o ABSOLUTE
    FATFS\exfuns\mycc936.c                   0x00000000   Number         0  mycc936.o ABSOLUTE
    FATFS\src\diskio.c                       0x00000000   Number         0  diskio.o ABSOLUTE
    FATFS\src\fattime.c                      0x00000000   Number         0  fattime.o ABSOLUTE
    FATFS\src\ff.c                           0x00000000   Number         0  ff.o ABSOLUTE
    HARDWARE\AUDIOCODEC\codec.c              0x00000000   Number         0  codec.o ABSOLUTE
    HARDWARE\KEY\key.c                       0x00000000   Number         0  key.o ABSOLUTE
    HARDWARE\LCD\lcd.c                       0x00000000   Number         0  lcd.o ABSOLUTE
    HARDWARE\LED\led.c                       0x00000000   Number         0  led.o ABSOLUTE
    HARDWARE\SD\sd.c                         0x00000000   Number         0  sd.o ABSOLUTE
    HARDWARE\\AUDIOCODEC\\codec.c            0x00000000   Number         0  codec.o ABSOLUTE
    HARDWARE\\KEY\\key.c                     0x00000000   Number         0  key.o ABSOLUTE
    HARDWARE\\LCD\\lcd.c                     0x00000000   Number         0  lcd.o ABSOLUTE
    HARDWARE\\LED\\led.c                     0x00000000   Number         0  led.o ABSOLUTE
    HARDWARE\\SD\\sd.c                       0x00000000   Number         0  sd.o ABSOLUTE
    Libraries\STM32F4xx_StdPeriph_Driver\src\misc.c 0x00000000   Number         0  misc.o ABSOLUTE
    Libraries\STM32F4xx_StdPeriph_Driver\src\stm32f4xx_dac.c 0x00000000   Number         0  stm32f4xx_dac.o ABSOLUTE
    Libraries\STM32F4xx_StdPeriph_Driver\src\stm32f4xx_dma.c 0x00000000   Number         0  stm32f4xx_dma.o ABSOLUTE
    Libraries\STM32F4xx_StdPeriph_Driver\src\stm32f4xx_exti.c 0x00000000   Number         0  stm32f4xx_exti.o ABSOLUTE
    Libraries\STM32F4xx_StdPeriph_Driver\src\stm32f4xx_gpio.c 0x00000000   Number         0  stm32f4xx_gpio.o ABSOLUTE
    Libraries\STM32F4xx_StdPeriph_Driver\src\stm32f4xx_i2c.c 0x00000000   Number         0  stm32f4xx_i2c.o ABSOLUTE
    Libraries\STM32F4xx_StdPeriph_Driver\src\stm32f4xx_rcc.c 0x00000000   Number         0  stm32f4xx_rcc.o ABSOLUTE
    Libraries\STM32F4xx_StdPeriph_Driver\src\stm32f4xx_spi.c 0x00000000   Number         0  stm32f4xx_spi.o ABSOLUTE
    Libraries\STM32F4xx_StdPeriph_Driver\src\stm32f4xx_syscfg.c 0x00000000   Number         0  stm32f4xx_syscfg.o ABSOLUTE
    Libraries\STM32F4xx_StdPeriph_Driver\src\stm32f4xx_tim.c 0x00000000   Number         0  stm32f4xx_tim.o ABSOLUTE
    Libraries\STM32F4xx_StdPeriph_Driver\src\stm32f4xx_usart.c 0x00000000   Number         0  stm32f4xx_usart.o ABSOLUTE
    Libraries\STM32_USB_HOST_Library\Class\MSC\src\usbh_msc_bot.c 0x00000000   Number         0  usbh_msc_bot.o ABSOLUTE
    Libraries\STM32_USB_HOST_Library\Class\MSC\src\usbh_msc_core.c 0x00000000   Number         0  usbh_msc_core.o ABSOLUTE
    Libraries\STM32_USB_HOST_Library\Class\MSC\src\usbh_msc_scsi.c 0x00000000   Number         0  usbh_msc_scsi.o ABSOLUTE
    Libraries\STM32_USB_HOST_Library\Core\src\usbh_core.c 0x00000000   Number         0  usbh_core.o ABSOLUTE
    Libraries\STM32_USB_HOST_Library\Core\src\usbh_hcs.c 0x00000000   Number         0  usbh_hcs.o ABSOLUTE
    Libraries\STM32_USB_HOST_Library\Core\src\usbh_ioreq.c 0x00000000   Number         0  usbh_ioreq.o ABSOLUTE
    Libraries\STM32_USB_HOST_Library\Core\src\usbh_stdreq.c 0x00000000   Number         0  usbh_stdreq.o ABSOLUTE
    Libraries\STM32_USB_OTG_Driver\src\usb_core.c 0x00000000   Number         0  usb_core.o ABSOLUTE
    Libraries\STM32_USB_OTG_Driver\src\usb_hcd.c 0x00000000   Number         0  usb_hcd.o ABSOLUTE
    Libraries\STM32_USB_OTG_Driver\src\usb_hcd_int.c 0x00000000   Number         0  usb_hcd_int.o ABSOLUTE
    Libraries\\STM32F4xx_StdPeriph_Driver\\src\\misc.c 0x00000000   Number         0  misc.o ABSOLUTE
    Libraries\\STM32F4xx_StdPeriph_Driver\\src\\stm32f4xx_dac.c 0x00000000   Number         0  stm32f4xx_dac.o ABSOLUTE
    Libraries\\STM32F4xx_StdPeriph_Driver\\src\\stm32f4xx_dma.c 0x00000000   Number         0  stm32f4xx_dma.o ABSOLUTE
    Libraries\\STM32F4xx_StdPeriph_Driver\\src\\stm32f4xx_exti.c 0x00000000   Number         0  stm32f4xx_exti.o ABSOLUTE
    Libraries\\STM32F4xx_StdPeriph_Driver\\src\\stm32f4xx_gpio.c 0x00000000   Number         0  stm32f4xx_gpio.o ABSOLUTE
    Libraries\\STM32F4xx_StdPeriph_Driver\\src\\stm32f4xx_i2c.c 0x00000000   Number         0  stm32f4xx_i2c.o ABSOLUTE
    Libraries\\STM32F4xx_StdPeriph_Driver\\src\\stm32f4xx_rcc.c 0x00000000   Number         0  stm32f4xx_rcc.o ABSOLUTE
    Libraries\\STM32F4xx_StdPeriph_Driver\\src\\stm32f4xx_spi.c 0x00000000   Number         0  stm32f4xx_spi.o ABSOLUTE
    Libraries\\STM32F4xx_StdPeriph_Driver\\src\\stm32f4xx_syscfg.c 0x00000000   Number         0  stm32f4xx_syscfg.o ABSOLUTE
    Libraries\\STM32F4xx_StdPeriph_Driver\\src\\stm32f4xx_tim.c 0x00000000   Number         0  stm32f4xx_tim.o ABSOLUTE
    Libraries\\STM32F4xx_StdPeriph_Driver\\src\\stm32f4xx_usart.c 0x00000000   Number         0  stm32f4xx_usart.o ABSOLUTE
    Libraries\\STM32_USB_HOST_Library\\Class\\MSC\\src\\usbh_msc_bot.c 0x00000000   Number         0  usbh_msc_bot.o ABSOLUTE
    Libraries\\STM32_USB_HOST_Library\\Class\\MSC\\src\\usbh_msc_core.c 0x00000000   Number         0  usbh_msc_core.o ABSOLUTE
    Libraries\\STM32_USB_HOST_Library\\Class\\MSC\\src\\usbh_msc_scsi.c 0x00000000   Number         0  usbh_msc_scsi.o ABSOLUTE
    Libraries\\STM32_USB_HOST_Library\\Core\\src\\usbh_core.c 0x00000000   Number         0  usbh_core.o ABSOLUTE
    Libraries\\STM32_USB_HOST_Library\\Core\\src\\usbh_hcs.c 0x00000000   Number         0  usbh_hcs.o ABSOLUTE
    Libraries\\STM32_USB_HOST_Library\\Core\\src\\usbh_ioreq.c 0x00000000   Number         0  usbh_ioreq.o ABSOLUTE
    Libraries\\STM32_USB_HOST_Library\\Core\\src\\usbh_stdreq.c 0x00000000   Number         0  usbh_stdreq.o ABSOLUTE
    Libraries\\STM32_USB_OTG_Driver\\src\\usb_core.c 0x00000000   Number         0  usb_core.o ABSOLUTE
    Libraries\\STM32_USB_OTG_Driver\\src\\usb_hcd.c 0x00000000   Number         0  usb_hcd.o ABSOLUTE
    Libraries\\STM32_USB_OTG_Driver\\src\\usb_hcd_int.c 0x00000000   Number         0  usb_hcd_int.o ABSOLUTE
    Mp3Lib\\mp3play.c                        0x00000000   Number         0  mp3play.o ABSOLUTE
    Mp3Lib\mp3play.c                         0x00000000   Number         0  mp3play.o ABSOLUTE
    Mp3Lib\src\arm\asmmisc.S                 0x00000000   Number         0  asmmisc.o ABSOLUTE
    Mp3Lib\src\arm\asmpoly_thumb2.S          0x00000000   Number         0  asmpoly_thumb2.o ABSOLUTE
    Mp3Lib\src\bitstream.c                   0x00000000   Number         0  bitstream.o ABSOLUTE
    Mp3Lib\src\buffers.c                     0x00000000   Number         0  buffers.o ABSOLUTE
    Mp3Lib\src\dct32.c                       0x00000000   Number         0  dct32.o ABSOLUTE
    Mp3Lib\src\dequant.c                     0x00000000   Number         0  dequant.o ABSOLUTE
    Mp3Lib\src\dqchan.c                      0x00000000   Number         0  dqchan.o ABSOLUTE
    Mp3Lib\src\huffman.c                     0x00000000   Number         0  huffman.o ABSOLUTE
    Mp3Lib\src\hufftabs.c                    0x00000000   Number         0  hufftabs.o ABSOLUTE
    Mp3Lib\src\imdct.c                       0x00000000   Number         0  imdct.o ABSOLUTE
    Mp3Lib\src\mp3dec.c                      0x00000000   Number         0  mp3dec.o ABSOLUTE
    Mp3Lib\src\mp3tabs.c                     0x00000000   Number         0  mp3tabs.o ABSOLUTE
    Mp3Lib\src\scalfact.c                    0x00000000   Number         0  scalfact.o ABSOLUTE
    Mp3Lib\src\stproc.c                      0x00000000   Number         0  stproc.o ABSOLUTE
    Mp3Lib\src\subband.c                     0x00000000   Number         0  subband.o ABSOLUTE
    Mp3Lib\src\trigtabs.c                    0x00000000   Number         0  trigtabs.o ABSOLUTE
    SYSTEM\\delay\\delay.c                   0x00000000   Number         0  delay.o ABSOLUTE
    SYSTEM\\sys\\sys.c                       0x00000000   Number         0  sys.o ABSOLUTE
    SYSTEM\\usart\\usart.c                   0x00000000   Number         0  usart.o ABSOLUTE
    SYSTEM\delay\delay.c                     0x00000000   Number         0  delay.o ABSOLUTE
    SYSTEM\sys\sys.c                         0x00000000   Number         0  sys.o ABSOLUTE
    SYSTEM\usart\usart.c                     0x00000000   Number         0  usart.o ABSOLUTE
    UCOSII\CORE\os_core.c                    0x00000000   Number         0  os_core.o ABSOLUTE
    UCOSII\CORE\os_flag.c                    0x00000000   Number         0  os_flag.o ABSOLUTE
    UCOSII\CORE\os_mbox.c                    0x00000000   Number         0  os_mbox.o ABSOLUTE
    UCOSII\CORE\os_mem.c                     0x00000000   Number         0  os_mem.o ABSOLUTE
    UCOSII\CORE\os_mutex.c                   0x00000000   Number         0  os_mutex.o ABSOLUTE
    UCOSII\CORE\os_q.c                       0x00000000   Number         0  os_q.o ABSOLUTE
    UCOSII\CORE\os_sem.c                     0x00000000   Number         0  os_sem.o ABSOLUTE
    UCOSII\CORE\os_task.c                    0x00000000   Number         0  os_task.o ABSOLUTE
    UCOSII\CORE\os_time.c                    0x00000000   Number         0  os_time.o ABSOLUTE
    UCOSII\CORE\os_tmr.c                     0x00000000   Number         0  os_tmr.o ABSOLUTE
    UCOSII\PORT\os_cpu_a.asm                 0x00000000   Number         0  os_cpu_a.o ABSOLUTE
    UCOSII\PORT\os_cpu_c.c                   0x00000000   Number         0  os_cpu_c.o ABSOLUTE
    UCOSII\\CORE\\os_core.c                  0x00000000   Number         0  os_core.o ABSOLUTE
    UCOSII\\CORE\\os_flag.c                  0x00000000   Number         0  os_flag.o ABSOLUTE
    UCOSII\\CORE\\os_mbox.c                  0x00000000   Number         0  os_mbox.o ABSOLUTE
    UCOSII\\CORE\\os_mem.c                   0x00000000   Number         0  os_mem.o ABSOLUTE
    UCOSII\\CORE\\os_mutex.c                 0x00000000   Number         0  os_mutex.o ABSOLUTE
    UCOSII\\CORE\\os_q.c                     0x00000000   Number         0  os_q.o ABSOLUTE
    UCOSII\\CORE\\os_sem.c                   0x00000000   Number         0  os_sem.o ABSOLUTE
    UCOSII\\CORE\\os_task.c                  0x00000000   Number         0  os_task.o ABSOLUTE
    UCOSII\\CORE\\os_time.c                  0x00000000   Number         0  os_time.o ABSOLUTE
    UCOSII\\CORE\\os_tmr.c                   0x00000000   Number         0  os_tmr.o ABSOLUTE
    UCOSII\\PORT\\os_cpu_c.c                 0x00000000   Number         0  os_cpu_c.o ABSOLUTE
    USER\ProductTest.c                       0x00000000   Number         0  producttest.o ABSOLUTE
    USER\\ProductTest.c                      0x00000000   Number         0  producttest.o ABSOLUTE
    User\\main.c                             0x00000000   Number         0  main.o ABSOLUTE
    User\\stm32f4xx_it.c                     0x00000000   Number         0  stm32f4xx_it.o ABSOLUTE
    User\\system_stm32f4xx.c                 0x00000000   Number         0  system_stm32f4xx.o ABSOLUTE
    User\\usb_bsp.c                          0x00000000   Number         0  usb_bsp.o ABSOLUTE
    User\\usbh_usr.c                         0x00000000   Number         0  usbh_usr.o ABSOLUTE
    User\main.c                              0x00000000   Number         0  main.o ABSOLUTE
    User\stm32f4xx_it.c                      0x00000000   Number         0  stm32f4xx_it.o ABSOLUTE
    User\system_stm32f4xx.c                  0x00000000   Number         0  system_stm32f4xx.o ABSOLUTE
    User\usb_bsp.c                           0x00000000   Number         0  usb_bsp.o ABSOLUTE
    User\usbh_usr.c                          0x00000000   Number         0  usbh_usr.o ABSOLUTE
    cdrcmple.s                               0x00000000   Number         0  cdrcmple.o ABSOLUTE
    dc.s                                     0x00000000   Number         0  dc.o ABSOLUTE
    handlers.s                               0x00000000   Number         0  handlers.o ABSOLUTE
    init.s                                   0x00000000   Number         0  init.o ABSOLUTE
    RESET                                    0x08000000   Section      392  startup_stm32f4xx.o(RESET)
    .ARM.Collect$$$$00000000                 0x08000188   Section        0  entry.o(.ARM.Collect$$$$00000000)
    .ARM.Collect$$$$00000001                 0x08000188   Section        4  entry2.o(.ARM.Collect$$$$00000001)
    .ARM.Collect$$$$00000004                 0x0800018c   Section        4  entry5.o(.ARM.Collect$$$$00000004)
    .ARM.Collect$$$$00000008                 0x08000190   Section        0  entry7b.o(.ARM.Collect$$$$00000008)
    .ARM.Collect$$$$0000000A                 0x08000190   Section        0  entry8b.o(.ARM.Collect$$$$0000000A)
    .ARM.Collect$$$$0000000B                 0x08000190   Section        8  entry9a.o(.ARM.Collect$$$$0000000B)
    .ARM.Collect$$$$0000000D                 0x08000198   Section        0  entry10a.o(.ARM.Collect$$$$0000000D)
    .ARM.Collect$$$$0000000F                 0x08000198   Section        0  entry11a.o(.ARM.Collect$$$$0000000F)
    .ARM.Collect$$$$00002712                 0x08000198   Section        4  entry2.o(.ARM.Collect$$$$00002712)
    __lit__00000000                          0x08000198   Data           4  entry2.o(.ARM.Collect$$$$00002712)
    .text                                    0x0800019c   Section       36  startup_stm32f4xx.o(.text)
    $v0                                      0x0800019c   Number         0  startup_stm32f4xx.o(.text)
    .text                                    0x080001c0   Section        8  asmmisc.o(.text)
    $v0                                      0x080001c0   Number         0  asmmisc.o(.text)
    .text                                    0x080001c8   Section     2062  asmpoly_thumb2.o(.text)
    $v0                                      0x080001c8   Number         0  asmpoly_thumb2.o(.text)
    .text                                    0x080009d8   Section      200  os_cpu_a.o(.text)
    $v0                                      0x080009d8   Number         0  os_cpu_a.o(.text)
    .text                                    0x08000aa0   Section        0  rand.o(.text)
    .text                                    0x08000ac4   Section        0  memmovea.o(.text)
    .text                                    0x08000b04   Section        0  memseta.o(.text)
    .text                                    0x08000b28   Section        0  strcat.o(.text)
    .text                                    0x08000b40   Section        0  strstr.o(.text)
    .text                                    0x08000b64   Section        0  strncpy.o(.text)
    .text                                    0x08000b7c   Section        0  strlen.o(.text)
    .text                                    0x08000b8a   Section        0  strcmp.o(.text)
    .text                                    0x08000ba6   Section        0  strcpy.o(.text)
    .text                                    0x08000bb8   Section        0  strncmp.o(.text)
    .text                                    0x08000bd8   Section       36  init.o(.text)
    .text                                    0x08000bfc   Section        0  __dczerorl2.o(.text)
    i.AntiAlias                              0x08000c54   Section        0  imdct.o(i.AntiAlias)
    AntiAlias                                0x08000c55   Thumb Code   592  imdct.o(i.AntiAlias)
    i.Audio_MAL_IRQHandler                   0x08000ea8   Section        0  codec.o(i.Audio_MAL_IRQHandler)
    Audio_MAL_IRQHandler                     0x08000ea9   Thumb Code   210  codec.o(i.Audio_MAL_IRQHandler)
    i.Audio_MAL_Init                         0x08000f90   Section        0  codec.o(i.Audio_MAL_Init)
    Audio_MAL_Init                           0x08000f91   Thumb Code   218  codec.o(i.Audio_MAL_Init)
    i.Audio_MAL_PauseResume                  0x0800108c   Section        0  codec.o(i.Audio_MAL_PauseResume)
    Audio_MAL_PauseResume                    0x0800108d   Thumb Code    72  codec.o(i.Audio_MAL_PauseResume)
    i.Audio_MAL_Play                         0x080010dc   Section        0  codec.o(i.Audio_MAL_Play)
    i.Audio_MAL_Stop                         0x08001148   Section        0  codec.o(i.Audio_MAL_Stop)
    Audio_MAL_Stop                           0x08001149   Thumb Code    54  codec.o(i.Audio_MAL_Stop)
    i.BSP_Delay                              0x08001198   Section        0  usb_bsp.o(i.BSP_Delay)
    BSP_Delay                                0x08001199   Thumb Code    38  usb_bsp.o(i.BSP_Delay)
    i.BSP_SetTime                            0x080011c4   Section        0  usb_bsp.o(i.BSP_SetTime)
    BSP_SetTime                              0x080011c5   Thumb Code   106  usb_bsp.o(i.BSP_SetTime)
    i.BusFault_Handler                       0x0800122e   Section        0  stm32f4xx_it.o(i.BusFault_Handler)
    i.CLZ                                    0x08001232   Section        0  dequant.o(i.CLZ)
    CLZ                                      0x08001233   Thumb Code    28  dequant.o(i.CLZ)
    i.CLZ                                    0x0800124e   Section        0  dqchan.o(i.CLZ)
    CLZ                                      0x0800124f   Thumb Code    28  dqchan.o(i.CLZ)
    i.COMMAND_AudioExecuteApplication        0x0800126c   Section        0  usbh_usr.o(i.COMMAND_AudioExecuteApplication)
    i.CSPin_Init                             0x080012b0   Section        0  sd.o(i.CSPin_Init)
    i.ClearBuffer                            0x080012ec   Section        0  buffers.o(i.ClearBuffer)
    i.Codec_AudioInterface_Init              0x08001304   Section        0  codec.o(i.Codec_AudioInterface_Init)
    Codec_AudioInterface_Init                0x08001305   Thumb Code    98  codec.o(i.Codec_AudioInterface_Init)
    i.Codec_CtrlInterface_Init               0x08001370   Section        0  codec.o(i.Codec_CtrlInterface_Init)
    Codec_CtrlInterface_Init                 0x08001371   Thumb Code    72  codec.o(i.Codec_CtrlInterface_Init)
    i.Codec_GPIO_Init                        0x080013c0   Section        0  codec.o(i.Codec_GPIO_Init)
    Codec_GPIO_Init                          0x080013c1   Thumb Code   270  codec.o(i.Codec_GPIO_Init)
    i.Codec_Init                             0x080014e4   Section        0  codec.o(i.Codec_Init)
    Codec_Init                               0x080014e5   Thumb Code   224  codec.o(i.Codec_Init)
    i.Codec_Mute                             0x080015cc   Section        0  codec.o(i.Codec_Mute)
    Codec_Mute                               0x080015cd   Thumb Code    38  codec.o(i.Codec_Mute)
    i.Codec_PauseResume                      0x080015f8   Section        0  codec.o(i.Codec_PauseResume)
    Codec_PauseResume                        0x080015f9   Thumb Code    62  codec.o(i.Codec_PauseResume)
    i.Codec_ReadRegister                     0x0800163c   Section        0  codec.o(i.Codec_ReadRegister)
    Codec_ReadRegister                       0x0800163d   Thumb Code   426  codec.o(i.Codec_ReadRegister)
    i.Codec_Reset                            0x08001800   Section        0  codec.o(i.Codec_Reset)
    Codec_Reset                              0x08001801   Thumb Code    32  codec.o(i.Codec_Reset)
    i.Codec_Stop                             0x08001824   Section        0  codec.o(i.Codec_Stop)
    Codec_Stop                               0x08001825   Thumb Code    60  codec.o(i.Codec_Stop)
    i.Codec_TIMEOUT_UserCallback             0x08001864   Section        0  mp3play.o(i.Codec_TIMEOUT_UserCallback)
    i.Codec_VolumeCtrl                       0x08001868   Section        0  codec.o(i.Codec_VolumeCtrl)
    Codec_VolumeCtrl                         0x08001869   Thumb Code    72  codec.o(i.Codec_VolumeCtrl)
    i.Codec_WriteRegister                    0x080018b0   Section        0  codec.o(i.Codec_WriteRegister)
    Codec_WriteRegister                      0x080018b1   Thumb Code   274  codec.o(i.Codec_WriteRegister)
    i.DAC_Cmd                                0x080019d8   Section        0  stm32f4xx_dac.o(i.DAC_Cmd)
    i.DAC_Config                             0x08001a00   Section        0  codec.o(i.DAC_Config)
    i.DAC_Init                               0x08001a50   Section        0  stm32f4xx_dac.o(i.DAC_Init)
    i.DAC_SetChannel1Data                    0x08001a84   Section        0  stm32f4xx_dac.o(i.DAC_SetChannel1Data)
    i.DMA1_Stream0_IRQHandler                0x08001aa4   Section        0  codec.o(i.DMA1_Stream0_IRQHandler)
    i.DMA1_Stream7_IRQHandler                0x08001aac   Section        0  codec.o(i.DMA1_Stream7_IRQHandler)
    i.DMA_ClearFlag                          0x08001ab4   Section        0  stm32f4xx_dma.o(i.DMA_ClearFlag)
    i.DMA_Cmd                                0x08001ae8   Section        0  stm32f4xx_dma.o(i.DMA_Cmd)
    i.DMA_DeInit                             0x08001b00   Section        0  stm32f4xx_dma.o(i.DMA_DeInit)
    i.DMA_GetCmdStatus                       0x08001c58   Section        0  stm32f4xx_dma.o(i.DMA_GetCmdStatus)
    i.DMA_GetFlagStatus                      0x08001c6c   Section        0  stm32f4xx_dma.o(i.DMA_GetFlagStatus)
    i.DMA_ITConfig                           0x08001cb0   Section        0  stm32f4xx_dma.o(i.DMA_ITConfig)
    i.DMA_Init                               0x08001cec   Section        0  stm32f4xx_dma.o(i.DMA_Init)
    i.DebugMon_Handler                       0x08001d44   Section        0  stm32f4xx_it.o(i.DebugMon_Handler)
    i.DecodeHuffmanPairs                     0x08001d48   Section        0  huffman.o(i.DecodeHuffmanPairs)
    DecodeHuffmanPairs                       0x08001d49   Thumb Code   896  huffman.o(i.DecodeHuffmanPairs)
    i.DecodeHuffmanQuads                     0x080020d4   Section        0  huffman.o(i.DecodeHuffmanQuads)
    DecodeHuffmanQuads                       0x080020d5   Thumb Code   366  huffman.o(i.DecodeHuffmanQuads)
    i.Delay                                  0x08002250   Section        0  codec.o(i.Delay)
    Delay                                    0x08002251   Thumb Code    18  codec.o(i.Delay)
    i.DequantBlock                           0x08002264   Section        0  dqchan.o(i.DequantBlock)
    DequantBlock                             0x08002265   Thumb Code   404  dqchan.o(i.DequantBlock)
    i.DrawPage                               0x08002418   Section        0  lcd.o(i.DrawPage)
    i.EVAL_AUDIO_GetSampleCallBack           0x08002488   Section        0  mp3play.o(i.EVAL_AUDIO_GetSampleCallBack)
    i.EVAL_AUDIO_Init                        0x0800248c   Section        0  codec.o(i.EVAL_AUDIO_Init)
    i.EVAL_AUDIO_PauseResume                 0x080024c6   Section        0  codec.o(i.EVAL_AUDIO_PauseResume)
    i.EVAL_AUDIO_SetAudioInterface           0x080024e4   Section        0  codec.o(i.EVAL_AUDIO_SetAudioInterface)
    i.EVAL_AUDIO_Stop                        0x080025c0   Section        0  codec.o(i.EVAL_AUDIO_Stop)
    i.EVAL_AUDIO_TransferComplete_CallBack   0x080025e8   Section        0  mp3play.o(i.EVAL_AUDIO_TransferComplete_CallBack)
    i.EVAL_AUDIO_VolumeCtl                   0x080025f4   Section        0  codec.o(i.EVAL_AUDIO_VolumeCtl)
    i.EXTI0_IRQHandler                       0x08002614   Section        0  stm32f4xx_it.o(i.EXTI0_IRQHandler)
    i.EXTI1_IRQHandler                       0x08002668   Section        0  stm32f4xx_it.o(i.EXTI1_IRQHandler)
    i.EXTI_ClearITPendingBit                 0x0800266c   Section        0  stm32f4xx_exti.o(i.EXTI_ClearITPendingBit)
    i.EXTI_GetITStatus                       0x08002678   Section        0  stm32f4xx_exti.o(i.EXTI_GetITStatus)
    i.FreqInvertRescale                      0x080026a0   Section        0  imdct.o(i.FreqInvertRescale)
    FreqInvertRescale                        0x080026a1   Thumb Code   516  imdct.o(i.FreqInvertRescale)
    i.GPIO_Init                              0x080028a4   Section        0  stm32f4xx_gpio.o(i.GPIO_Init)
    i.GPIO_PinAFConfig                       0x08002934   Section        0  stm32f4xx_gpio.o(i.GPIO_PinAFConfig)
    i.GPIO_ResetBits                         0x0800297a   Section        0  stm32f4xx_gpio.o(i.GPIO_ResetBits)
    i.GPIO_SetBits                           0x0800297e   Section        0  stm32f4xx_gpio.o(i.GPIO_SetBits)
    i.GPIO_WriteBit                          0x08002982   Section        0  stm32f4xx_gpio.o(i.GPIO_WriteBit)
    i.GUI_DrawFont16                         0x0800298c   Section        0  lcd.o(i.GUI_DrawFont16)
    i.GUI_DrawFont24                         0x08002a98   Section        0  lcd.o(i.GUI_DrawFont24)
    i.GUI_DrawFont32                         0x08002bb0   Section        0  lcd.o(i.GUI_DrawFont32)
    i.GUI_DrawPoint                          0x08002cb8   Section        0  lcd.o(i.GUI_DrawPoint)
    i.Gui_StrCenter                          0x08002cd0   Section        0  lcd.o(i.Gui_StrCenter)
    i.Gui_icon                               0x08002d18   Section        0  lcd.o(i.Gui_icon)
    i.HCD_GetCurrentFrame                    0x08002d78   Section        0  usb_hcd.o(i.HCD_GetCurrentFrame)
    i.HCD_GetCurrentSpeed                    0x08002d82   Section        0  usb_hcd.o(i.HCD_GetCurrentSpeed)
    i.HCD_GetURB_State                       0x08002d96   Section        0  usb_hcd.o(i.HCD_GetURB_State)
    i.HCD_GetXferCnt                         0x08002da0   Section        0  usb_hcd.o(i.HCD_GetXferCnt)
    i.HCD_Init                               0x08002dac   Section        0  usb_hcd.o(i.HCD_Init)
    i.HCD_IsDeviceConnected                  0x08002e0c   Section        0  usb_hcd.o(i.HCD_IsDeviceConnected)
    i.HCD_ResetPort                          0x08002e14   Section        0  usb_hcd.o(i.HCD_ResetPort)
    i.HCD_SubmitRequest                      0x08002e22   Section        0  usb_hcd.o(i.HCD_SubmitRequest)
    i.HardFault_Handler                      0x08002e42   Section        0  stm32f4xx_it.o(i.HardFault_Handler)
    i.HybridTransform                        0x08002e46   Section        0  imdct.o(i.HybridTransform)
    HybridTransform                          0x08002e47   Thumb Code   380  imdct.o(i.HybridTransform)
    i.I2C_AcknowledgeConfig                  0x08002fc2   Section        0  stm32f4xx_i2c.o(i.I2C_AcknowledgeConfig)
    i.I2C_CheckEvent                         0x08002fda   Section        0  stm32f4xx_i2c.o(i.I2C_CheckEvent)
    i.I2C_ClearFlag                          0x08003004   Section        0  stm32f4xx_i2c.o(i.I2C_ClearFlag)
    i.I2C_Cmd                                0x08003010   Section        0  stm32f4xx_i2c.o(i.I2C_Cmd)
    i.I2C_DeInit                             0x08003028   Section        0  stm32f4xx_i2c.o(i.I2C_DeInit)
    i.I2C_GenerateSTART                      0x08003088   Section        0  stm32f4xx_i2c.o(i.I2C_GenerateSTART)
    i.I2C_GenerateSTOP                       0x080030a0   Section        0  stm32f4xx_i2c.o(i.I2C_GenerateSTOP)
    i.I2C_GetFlagStatus                      0x080030b8   Section        0  stm32f4xx_i2c.o(i.I2C_GetFlagStatus)
    i.I2C_Init                               0x080030f4   Section        0  stm32f4xx_i2c.o(i.I2C_Init)
    i.I2C_ReceiveData                        0x080031dc   Section        0  stm32f4xx_i2c.o(i.I2C_ReceiveData)
    i.I2C_Send7bitAddress                    0x080031e4   Section        0  stm32f4xx_i2c.o(i.I2C_Send7bitAddress)
    i.I2C_SendData                           0x080031f4   Section        0  stm32f4xx_i2c.o(i.I2C_SendData)
    i.I2S_Cmd                                0x080031f8   Section        0  stm32f4xx_spi.o(i.I2S_Cmd)
    i.I2S_Init                               0x08003210   Section        0  stm32f4xx_spi.o(i.I2S_Init)
    i.IMDCT12x3                              0x08003378   Section        0  imdct.o(i.IMDCT12x3)
    IMDCT12x3                                0x08003379   Thumb Code   486  imdct.o(i.IMDCT12x3)
    i.IMDCT36                                0x08003564   Section        0  imdct.o(i.IMDCT36)
    IMDCT36                                  0x08003565   Thumb Code   572  imdct.o(i.IMDCT36)
    i.KEY_Init                               0x080037ac   Section        0  key.o(i.KEY_Init)
    i.KEY_Scan                               0x0800382c   Section        0  key.o(i.KEY_Scan)
    i.LCD_Clear                              0x08003964   Section        0  lcd.o(i.LCD_Clear)
    i.LCD_DrawFillRectangle                  0x080039d8   Section        0  lcd.o(i.LCD_DrawFillRectangle)
    i.LCD_DrawLine                           0x080039fc   Section        0  lcd.o(i.LCD_DrawLine)
    i.LCD_DrawPoint                          0x08003aac   Section        0  lcd.o(i.LCD_DrawPoint)
    i.LCD_DrawPoint_16Bit                    0x08003b04   Section        0  lcd.o(i.LCD_DrawPoint_16Bit)
    i.LCD_DrawRectangle                      0x08003b40   Section        0  lcd.o(i.LCD_DrawRectangle)
    i.LCD_Fill                               0x08003b7c   Section        0  lcd.o(i.LCD_Fill)
    i.LCD_GPIOInit                           0x08003c30   Section        0  lcd.o(i.LCD_GPIOInit)
    i.LCD_Init                               0x08003c88   Section        0  lcd.o(i.LCD_Init)
    i.LCD_RESET                              0x08003ecc   Section        0  lcd.o(i.LCD_RESET)
    i.LCD_SetCursor                          0x08003ef8   Section        0  lcd.o(i.LCD_SetCursor)
    i.LCD_SetParam                           0x08003f30   Section        0  lcd.o(i.LCD_SetParam)
    i.LCD_SetWindows                         0x08003f5c   Section        0  lcd.o(i.LCD_SetWindows)
    i.LCD_ShowChar                           0x08003fb0   Section        0  lcd.o(i.LCD_ShowChar)
    i.LCD_ShowNum                            0x080040d4   Section        0  lcd.o(i.LCD_ShowNum)
    i.LCD_ShowString                         0x08004184   Section        0  lcd.o(i.LCD_ShowString)
    i.LCD_WR_DATA                            0x080041f0   Section        0  lcd.o(i.LCD_WR_DATA)
    i.LCD_WR_REG                             0x08004218   Section        0  lcd.o(i.LCD_WR_REG)
    i.LCD_WriteRAM_Prepare                   0x0800423c   Section        0  lcd.o(i.LCD_WriteRAM_Prepare)
    i.LCD_WriteReg                           0x0800424c   Section        0  lcd.o(i.LCD_WriteReg)
    i.LED_Init                               0x08004260   Section        0  led.o(i.LED_Init)
    i.Lcd_Delay                              0x08004298   Section        0  lcd.o(i.Lcd_Delay)
    i.MP3ClearBadFrame                       0x080042aa   Section        0  mp3dec.o(i.MP3ClearBadFrame)
    MP3ClearBadFrame                         0x080042ab   Thumb Code     2  mp3dec.o(i.MP3ClearBadFrame)
    i.MP3Decode                              0x080042ac   Section        0  mp3dec.o(i.MP3Decode)
    i.MP3FindFreeSync                        0x080045d0   Section        0  mp3dec.o(i.MP3FindFreeSync)
    MP3FindFreeSync                          0x080045d1   Thumb Code   100  mp3dec.o(i.MP3FindFreeSync)
    i.MP3FindSyncWord                        0x08004634   Section        0  mp3dec.o(i.MP3FindSyncWord)
    i.MP3GetLastFrameInfo                    0x08004660   Section        0  mp3dec.o(i.MP3GetLastFrameInfo)
    i.MP3InitDecoder                         0x080046c4   Section        0  mp3dec.o(i.MP3InitDecoder)
    i.MemManage_Handler                      0x080046d0   Section        0  stm32f4xx_it.o(i.MemManage_Handler)
    i.Mp3PlayerInit                          0x080046d4   Section        0  mp3play.o(i.Mp3PlayerInit)
    i.Mp3PlayerPauseResume                   0x080046f4   Section        0  mp3play.o(i.Mp3PlayerPauseResume)
    i.Mp3PlayerStart                         0x08004700   Section        0  mp3play.o(i.Mp3PlayerStart)
    i.Mp3PlayerStop                          0x08004ab8   Section        0  mp3play.o(i.Mp3PlayerStop)
    i.Mp3Player_CallBack                     0x08004ac4   Section        0  mp3play.o(i.Mp3Player_CallBack)
    i.Mp3playerCtrlVolume                    0x08004b1c   Section        0  mp3play.o(i.Mp3playerCtrlVolume)
    i.NMI_Handler                            0x08004b2a   Section        0  stm32f4xx_it.o(i.NMI_Handler)
    i.NVIC_Init                              0x08004b2c   Section        0  misc.o(i.NVIC_Init)
    i.NVIC_PriorityGroupConfig               0x08004ba4   Section        0  misc.o(i.NVIC_PriorityGroupConfig)
    i.NVIC_SetVectorTable                    0x08004bb8   Section        0  misc.o(i.NVIC_SetVectorTable)
    i.OSInit                                 0x08004bcc   Section        0  os_core.o(i.OSInit)
    i.OSInitHookBegin                        0x08004bf8   Section        0  os_cpu_c.o(i.OSInitHookBegin)
    i.OSInitHookEnd                          0x08004bfa   Section        0  os_cpu_c.o(i.OSInitHookEnd)
    i.OSIntEnter                             0x08004bfc   Section        0  os_core.o(i.OSIntEnter)
    i.OSIntExit                              0x08004c20   Section        0  os_core.o(i.OSIntExit)
    i.OSSchedLock                            0x08004cb0   Section        0  os_core.o(i.OSSchedLock)
    i.OSSchedUnlock                          0x08004cf0   Section        0  os_core.o(i.OSSchedUnlock)
    i.OSStart                                0x08004d50   Section        0  os_core.o(i.OSStart)
    i.OSStatInit                             0x08004d98   Section        0  os_core.o(i.OSStatInit)
    i.OSTCBInitHook                          0x08004de4   Section        0  os_cpu_c.o(i.OSTCBInitHook)
    i.OSTaskCreate                           0x08004de8   Section        0  os_task.o(i.OSTaskCreate)
    i.OSTaskCreateExt                        0x08004e88   Section        0  os_task.o(i.OSTaskCreateExt)
    i.OSTaskCreateHook                       0x08004f40   Section        0  os_cpu_c.o(i.OSTaskCreateHook)
    i.OSTaskDel                              0x08004f44   Section        0  os_task.o(i.OSTaskDel)
    i.OSTaskDelHook                          0x08005098   Section        0  os_cpu_c.o(i.OSTaskDelHook)
    i.OSTaskIdleHook                         0x0800509a   Section        0  os_cpu_c.o(i.OSTaskIdleHook)
    i.OSTaskNameSet                          0x0800509c   Section        0  os_task.o(i.OSTaskNameSet)
    i.OSTaskReturnHook                       0x0800510c   Section        0  os_cpu_c.o(i.OSTaskReturnHook)
    i.OSTaskStatHook                         0x0800510e   Section        0  os_cpu_c.o(i.OSTaskStatHook)
    i.OSTaskStkChk                           0x08005110   Section        0  os_task.o(i.OSTaskStkChk)
    i.OSTaskStkInit                          0x0800519c   Section        0  os_cpu_c.o(i.OSTaskStkInit)
    i.OSTaskSuspend                          0x08005238   Section        0  os_task.o(i.OSTaskSuspend)
    i.OSTaskSwHook                           0x080052e0   Section        0  os_cpu_c.o(i.OSTaskSwHook)
    i.OSTimeDly                              0x080052e4   Section        0  os_time.o(i.OSTimeDly)
    i.OSTimeTick                             0x0800535c   Section        0  os_core.o(i.OSTimeTick)
    i.OSTimeTickHook                         0x08005448   Section        0  os_cpu_c.o(i.OSTimeTickHook)
    i.OS_Dummy                               0x0800544a   Section        0  os_core.o(i.OS_Dummy)
    i.OS_EventTaskRemove                     0x0800544c   Section        0  os_core.o(i.OS_EventTaskRemove)
    i.OS_FlagInit                            0x08005478   Section        0  os_flag.o(i.OS_FlagInit)
    i.OS_FlagUnlink                          0x080054d0   Section        0  os_flag.o(i.OS_FlagUnlink)
    i.OS_InitEventList                       0x080054f4   Section        0  os_core.o(i.OS_InitEventList)
    OS_InitEventList                         0x080054f5   Thumb Code    74  os_core.o(i.OS_InitEventList)
    i.OS_InitMisc                            0x08005548   Section        0  os_core.o(i.OS_InitMisc)
    OS_InitMisc                              0x08005549   Thumb Code    44  os_core.o(i.OS_InitMisc)
    i.OS_InitRdyList                         0x0800559c   Section        0  os_core.o(i.OS_InitRdyList)
    OS_InitRdyList                           0x0800559d   Thumb Code    44  os_core.o(i.OS_InitRdyList)
    i.OS_InitTCBList                         0x080055e0   Section        0  os_core.o(i.OS_InitTCBList)
    OS_InitTCBList                           0x080055e1   Thumb Code   106  os_core.o(i.OS_InitTCBList)
    i.OS_InitTaskIdle                        0x08005660   Section        0  os_core.o(i.OS_InitTaskIdle)
    OS_InitTaskIdle                          0x08005661   Thumb Code    50  os_core.o(i.OS_InitTaskIdle)
    i.OS_InitTaskStat                        0x080056b0   Section        0  os_core.o(i.OS_InitTaskStat)
    OS_InitTaskStat                          0x080056b1   Thumb Code    50  os_core.o(i.OS_InitTaskStat)
    i.OS_MemClr                              0x08005700   Section        0  os_core.o(i.OS_MemClr)
    i.OS_QInit                               0x08005714   Section        0  os_q.o(i.OS_QInit)
    i.OS_Sched                               0x08005764   Section        0  os_core.o(i.OS_Sched)
    i.OS_SchedNew                            0x080057d8   Section        0  os_core.o(i.OS_SchedNew)
    OS_SchedNew                              0x080057d9   Thumb Code    26  os_core.o(i.OS_SchedNew)
    i.OS_TCBInit                             0x08005804   Section        0  os_core.o(i.OS_TCBInit)
    i.OS_TaskIdle                            0x08005938   Section        0  os_core.o(i.OS_TaskIdle)
    i.OS_TaskReturn                          0x08005960   Section        0  os_task.o(i.OS_TaskReturn)
    i.OS_TaskStat                            0x08005978   Section        0  os_core.o(i.OS_TaskStat)
    i.OS_TaskStatStkChk                      0x08005a00   Section        0  os_core.o(i.OS_TaskStatStkChk)
    i.OS_TaskStkClr                          0x08005a3c   Section        0  os_task.o(i.OS_TaskStkClr)
    i.OTG_FS_IRQHandler                      0x08005a58   Section        0  stm32f4xx_it.o(i.OTG_FS_IRQHandler)
    i.ProductTest_main                       0x08005a68   Section        0  producttest.o(i.ProductTest_main)
    i.RCC_AHB1PeriphClockCmd                 0x08005b64   Section        0  stm32f4xx_rcc.o(i.RCC_AHB1PeriphClockCmd)
    i.RCC_AHB2PeriphClockCmd                 0x08005b84   Section        0  stm32f4xx_rcc.o(i.RCC_AHB2PeriphClockCmd)
    i.RCC_APB1PeriphClockCmd                 0x08005ba4   Section        0  stm32f4xx_rcc.o(i.RCC_APB1PeriphClockCmd)
    i.RCC_APB1PeriphResetCmd                 0x08005bc4   Section        0  stm32f4xx_rcc.o(i.RCC_APB1PeriphResetCmd)
    i.RCC_APB2PeriphClockCmd                 0x08005be4   Section        0  stm32f4xx_rcc.o(i.RCC_APB2PeriphClockCmd)
    i.RCC_APB2PeriphResetCmd                 0x08005c04   Section        0  stm32f4xx_rcc.o(i.RCC_APB2PeriphResetCmd)
    i.RCC_GetClocksFreq                      0x08005c24   Section        0  stm32f4xx_rcc.o(i.RCC_GetClocksFreq)
    i.RefillBitstreamCache                   0x08005d0c   Section        0  bitstream.o(i.RefillBitstreamCache)
    RefillBitstreamCache                     0x08005d0d   Thumb Code   136  bitstream.o(i.RefillBitstreamCache)
    i.SD_DisSelect                           0x08005d94   Section        0  sd.o(i.SD_DisSelect)
    i.SD_GetCSD                              0x08005dac   Section        0  sd.o(i.SD_GetCSD)
    i.SD_GetResponse                         0x08005dd6   Section        0  sd.o(i.SD_GetResponse)
    i.SD_GetSectorCount                      0x08005dfc   Section        0  sd.o(i.SD_GetSectorCount)
    i.SD_Initialize                          0x08005e74   Section        0  sd.o(i.SD_Initialize)
    i.SD_ReadDisk                            0x08006000   Section        0  sd.o(i.SD_ReadDisk)
    i.SD_RecvData                            0x08006074   Section        0  sd.o(i.SD_RecvData)
    i.SD_SPI_ReadWriteByte                   0x080060ac   Section        0  sd.o(i.SD_SPI_ReadWriteByte)
    i.SD_SPI_SpeedHigh                       0x080060b8   Section        0  sd.o(i.SD_SPI_SpeedHigh)
    i.SD_SPI_SpeedLow                        0x080060c2   Section        0  sd.o(i.SD_SPI_SpeedLow)
    i.SD_Select                              0x080060cc   Section        0  sd.o(i.SD_Select)
    i.SD_SendBlock                           0x080060ec   Section        0  sd.o(i.SD_SendBlock)
    i.SD_SendCmd                             0x0800613e   Section        0  sd.o(i.SD_SendCmd)
    i.SD_WaitReady                           0x080061b6   Section        0  sd.o(i.SD_WaitReady)
    i.SD_WriteDisk                           0x080061d8   Section        0  sd.o(i.SD_WriteDisk)
    i.SPI1_Init                              0x08006268   Section        0  sd.o(i.SPI1_Init)
    i.SPI1_ReadWriteByte                     0x0800631c   Section        0  sd.o(i.SPI1_ReadWriteByte)
    i.SPI1_SetSpeed                          0x08006370   Section        0  sd.o(i.SPI1_SetSpeed)
    i.SPI3_IRQHandler                        0x08006398   Section        0  codec.o(i.SPI3_IRQHandler)
    i.SPI_Cmd                                0x080063d4   Section        0  stm32f4xx_spi.o(i.SPI_Cmd)
    i.SPI_I2S_DMACmd                         0x080063ec   Section        0  stm32f4xx_spi.o(i.SPI_I2S_DMACmd)
    i.SPI_I2S_DeInit                         0x08006400   Section        0  stm32f4xx_spi.o(i.SPI_I2S_DeInit)
    i.SPI_I2S_GetFlagStatus                  0x08006458   Section        0  stm32f4xx_spi.o(i.SPI_I2S_GetFlagStatus)
    i.SPI_I2S_ITConfig                       0x0800646a   Section        0  stm32f4xx_spi.o(i.SPI_I2S_ITConfig)
    i.SPI_I2S_ReceiveData                    0x0800648a   Section        0  stm32f4xx_spi.o(i.SPI_I2S_ReceiveData)
    i.SPI_I2S_SendData                       0x08006490   Section        0  stm32f4xx_spi.o(i.SPI_I2S_SendData)
    i.SPI_Init                               0x08006494   Section        0  stm32f4xx_spi.o(i.SPI_Init)
    i.SVC_Handler                            0x080064d0   Section        0  stm32f4xx_it.o(i.SVC_Handler)
    i.SetSysClock                            0x080064d4   Section        0  system_stm32f4xx.o(i.SetSysClock)
    SetSysClock                              0x080064d5   Thumb Code   270  system_stm32f4xx.o(i.SetSysClock)
    i.Show_Str                               0x080065f8   Section        0  lcd.o(i.Show_Str)
    i.SysTick_CLKSourceConfig                0x08006704   Section        0  misc.o(i.SysTick_CLKSourceConfig)
    i.SysTick_Handler                        0x0800672c   Section        0  delay.o(i.SysTick_Handler)
    i.SystemInit                             0x0800673c   Section        0  system_stm32f4xx.o(i.SystemInit)
    i.TIM2_IRQHandler                        0x08006798   Section        0  stm32f4xx_it.o(i.TIM2_IRQHandler)
    i.TIM4_IRQHandler                        0x080067a0   Section        0  stm32f4xx_it.o(i.TIM4_IRQHandler)
    i.TIM_ARRPreloadConfig                   0x080067dc   Section        0  stm32f4xx_tim.o(i.TIM_ARRPreloadConfig)
    i.TIM_ClearITPendingBit                  0x080067f4   Section        0  stm32f4xx_tim.o(i.TIM_ClearITPendingBit)
    i.TIM_Cmd                                0x080067fa   Section        0  stm32f4xx_tim.o(i.TIM_Cmd)
    i.TIM_GetCapture1                        0x08006812   Section        0  stm32f4xx_tim.o(i.TIM_GetCapture1)
    i.TIM_GetITStatus                        0x08006818   Section        0  stm32f4xx_tim.o(i.TIM_GetITStatus)
    i.TIM_ITConfig                           0x0800683a   Section        0  stm32f4xx_tim.o(i.TIM_ITConfig)
    i.TIM_SetCompare1                        0x0800684c   Section        0  stm32f4xx_tim.o(i.TIM_SetCompare1)
    i.TIM_TimeBaseInit                       0x08006850   Section        0  stm32f4xx_tim.o(i.TIM_TimeBaseInit)
    i.USART3_IRQHandler                      0x080068d4   Section        0  usart.o(i.USART3_IRQHandler)
    i.USART_ClearFlag                        0x0800698c   Section        0  stm32f4xx_usart.o(i.USART_ClearFlag)
    i.USART_Cmd                              0x0800699e   Section        0  stm32f4xx_usart.o(i.USART_Cmd)
    i.USART_GetITStatus                      0x080069b6   Section        0  stm32f4xx_usart.o(i.USART_GetITStatus)
    i.USART_ITConfig                         0x08006a0a   Section        0  stm32f4xx_usart.o(i.USART_ITConfig)
    i.USART_Init                             0x08006a54   Section        0  stm32f4xx_usart.o(i.USART_Init)
    i.USART_ReceiveData                      0x08006b28   Section        0  stm32f4xx_usart.o(i.USART_ReceiveData)
    i.USBH_Alloc_Channel                     0x08006b32   Section        0  usbh_hcs.o(i.USBH_Alloc_Channel)
    i.USBH_BulkReceiveData                   0x08006b58   Section        0  usbh_ioreq.o(i.USBH_BulkReceiveData)
    i.USBH_BulkSendData                      0x08006bb8   Section        0  usbh_ioreq.o(i.USBH_BulkSendData)
    i.USBH_ClrFeature                        0x08006c16   Section        0  usbh_stdreq.o(i.USBH_ClrFeature)
    i.USBH_Connect                           0x08006c62   Section        0  usbh_core.o(i.USBH_Connect)
    i.USBH_CtlReceiveData                    0x08006c76   Section        0  usbh_ioreq.o(i.USBH_CtlReceiveData)
    i.USBH_CtlReq                            0x08006cbc   Section        0  usbh_ioreq.o(i.USBH_CtlReq)
    i.USBH_CtlSendData                       0x08006d2c   Section        0  usbh_ioreq.o(i.USBH_CtlSendData)
    i.USBH_CtlSendSetup                      0x08006d9a   Section        0  usbh_ioreq.o(i.USBH_CtlSendSetup)
    i.USBH_DeAllocate_AllChannel             0x08006ddc   Section        0  usbh_hcs.o(i.USBH_DeAllocate_AllChannel)
    i.USBH_DeInit                            0x08006df8   Section        0  usbh_core.o(i.USBH_DeInit)
    i.USBH_Disconnect                        0x08006e32   Section        0  usbh_core.o(i.USBH_Disconnect)
    i.USBH_ErrorHandle                       0x08006e46   Section        0  usbh_core.o(i.USBH_ErrorHandle)
    i.USBH_Free_Channel                      0x08006e74   Section        0  usbh_hcs.o(i.USBH_Free_Channel)
    i.USBH_GetDescriptor                     0x08006e92   Section        0  usbh_stdreq.o(i.USBH_GetDescriptor)
    i.USBH_GetFreeChannel                    0x08006ed6   Section        0  usbh_hcs.o(i.USBH_GetFreeChannel)
    USBH_GetFreeChannel                      0x08006ed7   Thumb Code    40  usbh_hcs.o(i.USBH_GetFreeChannel)
    i.USBH_GetNextDesc                       0x08006efe   Section        0  usbh_stdreq.o(i.USBH_GetNextDesc)
    USBH_GetNextDesc                         0x08006eff   Thumb Code    18  usbh_stdreq.o(i.USBH_GetNextDesc)
    i.USBH_Get_CfgDesc                       0x08006f10   Section        0  usbh_stdreq.o(i.USBH_Get_CfgDesc)
    i.USBH_Get_DevDesc                       0x08006f50   Section        0  usbh_stdreq.o(i.USBH_Get_DevDesc)
    i.USBH_Get_StringDesc                    0x08006f88   Section        0  usbh_stdreq.o(i.USBH_Get_StringDesc)
    i.USBH_HandleControl                     0x08006fc4   Section        0  usbh_core.o(i.USBH_HandleControl)
    i.USBH_HandleEnum                        0x080071ec   Section        0  usbh_core.o(i.USBH_HandleEnum)
    USBH_HandleEnum                          0x080071ed   Thumb Code   466  usbh_core.o(i.USBH_HandleEnum)
    i.USBH_Init                              0x080073c4   Section        0  usbh_core.o(i.USBH_Init)
    i.USBH_MSC_BOTReset                      0x08007420   Section        0  usbh_msc_core.o(i.USBH_MSC_BOTReset)
    USBH_MSC_BOTReset                        0x08007421   Thumb Code    36  usbh_msc_core.o(i.USBH_MSC_BOTReset)
    i.USBH_MSC_BOT_Abort                     0x08007444   Section        0  usbh_msc_bot.o(i.USBH_MSC_BOT_Abort)
    i.USBH_MSC_ClassRequest                  0x080074a4   Section        0  usbh_msc_core.o(i.USBH_MSC_ClassRequest)
    USBH_MSC_ClassRequest                    0x080074a5   Thumb Code    14  usbh_msc_core.o(i.USBH_MSC_ClassRequest)
    i.USBH_MSC_DecodeCSW                     0x080074b8   Section        0  usbh_msc_bot.o(i.USBH_MSC_DecodeCSW)
    i.USBH_MSC_ErrorHandle                   0x08007538   Section        0  usbh_msc_core.o(i.USBH_MSC_ErrorHandle)
    i.USBH_MSC_GETMaxLUN                     0x0800757c   Section        0  usbh_msc_core.o(i.USBH_MSC_GETMaxLUN)
    USBH_MSC_GETMaxLUN                       0x0800757d   Thumb Code    38  usbh_msc_core.o(i.USBH_MSC_GETMaxLUN)
    i.USBH_MSC_Handle                        0x080075a8   Section        0  usbh_msc_core.o(i.USBH_MSC_Handle)
    USBH_MSC_Handle                          0x080075a9   Thumb Code   406  usbh_msc_core.o(i.USBH_MSC_Handle)
    i.USBH_MSC_HandleBOTXfer                 0x08007750   Section        0  usbh_msc_bot.o(i.USBH_MSC_HandleBOTXfer)
    i.USBH_MSC_Init                          0x08007a4c   Section        0  usbh_msc_bot.o(i.USBH_MSC_Init)
    i.USBH_MSC_InterfaceDeInit               0x08007a90   Section        0  usbh_msc_core.o(i.USBH_MSC_InterfaceDeInit)
    USBH_MSC_InterfaceDeInit                 0x08007a91   Thumb Code    72  usbh_msc_core.o(i.USBH_MSC_InterfaceDeInit)
    i.USBH_MSC_InterfaceInit                 0x08007adc   Section        0  usbh_msc_core.o(i.USBH_MSC_InterfaceInit)
    USBH_MSC_InterfaceInit                   0x08007add   Thumb Code   202  usbh_msc_core.o(i.USBH_MSC_InterfaceInit)
    i.USBH_MSC_ModeSense6                    0x08007bac   Section        0  usbh_msc_scsi.o(i.USBH_MSC_ModeSense6)
    i.USBH_MSC_Read10                        0x08007c7c   Section        0  usbh_msc_scsi.o(i.USBH_MSC_Read10)
    i.USBH_MSC_ReadCapacity10                0x08007d7c   Section        0  usbh_msc_scsi.o(i.USBH_MSC_ReadCapacity10)
    i.USBH_MSC_RequestSense                  0x08007e58   Section        0  usbh_msc_scsi.o(i.USBH_MSC_RequestSense)
    i.USBH_MSC_TestUnitReady                 0x08007f38   Section        0  usbh_msc_scsi.o(i.USBH_MSC_TestUnitReady)
    i.USBH_MSC_Write10                       0x08007fe8   Section        0  usbh_msc_scsi.o(i.USBH_MSC_Write10)
    i.USBH_Modify_Channel                    0x080080cc   Section        0  usbh_hcs.o(i.USBH_Modify_Channel)
    i.USBH_OTG_ISR_Handler                   0x08008130   Section        0  usb_hcd_int.o(i.USBH_OTG_ISR_Handler)
    i.USBH_Open_Channel                      0x080081d8   Section        0  usbh_hcs.o(i.USBH_Open_Channel)
    i.USBH_ParseCfgDesc                      0x08008272   Section        0  usbh_stdreq.o(i.USBH_ParseCfgDesc)
    USBH_ParseCfgDesc                        0x08008273   Thumb Code   218  usbh_stdreq.o(i.USBH_ParseCfgDesc)
    i.USBH_ParseDevDesc                      0x0800834c   Section        0  usbh_stdreq.o(i.USBH_ParseDevDesc)
    USBH_ParseDevDesc                        0x0800834d   Thumb Code    88  usbh_stdreq.o(i.USBH_ParseDevDesc)
    i.USBH_ParseEPDesc                       0x080083a4   Section        0  usbh_stdreq.o(i.USBH_ParseEPDesc)
    USBH_ParseEPDesc                         0x080083a5   Thumb Code    32  usbh_stdreq.o(i.USBH_ParseEPDesc)
    i.USBH_ParseInterfaceDesc                0x080083c4   Section        0  usbh_stdreq.o(i.USBH_ParseInterfaceDesc)
    USBH_ParseInterfaceDesc                  0x080083c5   Thumb Code    38  usbh_stdreq.o(i.USBH_ParseInterfaceDesc)
    i.USBH_ParseStringDesc                   0x080083ea   Section        0  usbh_stdreq.o(i.USBH_ParseStringDesc)
    USBH_ParseStringDesc                     0x080083eb   Thumb Code    54  usbh_stdreq.o(i.USBH_ParseStringDesc)
    i.USBH_Process                           0x08008420   Section        0  usbh_core.o(i.USBH_Process)
    i.USBH_SetAddress                        0x080085ce   Section        0  usbh_stdreq.o(i.USBH_SetAddress)
    i.USBH_SetCfg                            0x080085f4   Section        0  usbh_stdreq.o(i.USBH_SetCfg)
    i.USBH_SubmitSetupRequest                0x0800861a   Section        0  usbh_ioreq.o(i.USBH_SubmitSetupRequest)
    USBH_SubmitSetupRequest                  0x0800861b   Thumb Code    24  usbh_ioreq.o(i.USBH_SubmitSetupRequest)
    i.USBH_USR_Configuration_DescAvailable   0x08008632   Section        0  usbh_usr.o(i.USBH_USR_Configuration_DescAvailable)
    i.USBH_USR_DeInit                        0x08008634   Section        0  usbh_usr.o(i.USBH_USR_DeInit)
    i.USBH_USR_DeviceAddressAssigned         0x08008640   Section        0  usbh_usr.o(i.USBH_USR_DeviceAddressAssigned)
    i.USBH_USR_DeviceAttached                0x08008644   Section        0  usbh_usr.o(i.USBH_USR_DeviceAttached)
    i.USBH_USR_DeviceDisconnected            0x0800866c   Section        0  usbh_usr.o(i.USBH_USR_DeviceDisconnected)
    i.USBH_USR_DeviceNotSupported            0x080086c0   Section        0  usbh_usr.o(i.USBH_USR_DeviceNotSupported)
    i.USBH_USR_DeviceSpeedDetected           0x080086c2   Section        0  usbh_usr.o(i.USBH_USR_DeviceSpeedDetected)
    i.USBH_USR_Device_DescAvailable          0x080086c4   Section        0  usbh_usr.o(i.USBH_USR_Device_DescAvailable)
    i.USBH_USR_EnumerationDone               0x080086c6   Section        0  usbh_usr.o(i.USBH_USR_EnumerationDone)
    i.USBH_USR_Init                          0x080086d6   Section        0  usbh_usr.o(i.USBH_USR_Init)
    i.USBH_USR_MSC_Application               0x080086d8   Section        0  usbh_usr.o(i.USBH_USR_MSC_Application)
    i.USBH_USR_Manufacturer_String           0x0800874c   Section        0  usbh_usr.o(i.USBH_USR_Manufacturer_String)
    i.USBH_USR_OverCurrentDetected           0x0800874e   Section        0  usbh_usr.o(i.USBH_USR_OverCurrentDetected)
    i.USBH_USR_Product_String                0x08008750   Section        0  usbh_usr.o(i.USBH_USR_Product_String)
    i.USBH_USR_ResetDevice                   0x08008752   Section        0  usbh_usr.o(i.USBH_USR_ResetDevice)
    i.USBH_USR_SerialNum_String              0x08008754   Section        0  usbh_usr.o(i.USBH_USR_SerialNum_String)
    i.USBH_USR_UnrecoveredError              0x08008756   Section        0  usbh_usr.o(i.USBH_USR_UnrecoveredError)
    i.USBH_USR_UserInput                     0x08008758   Section        0  usbh_usr.o(i.USBH_USR_UserInput)
    i.USB_OTG_BSP_ConfigVBUS                 0x0800875c   Section        0  usb_bsp.o(i.USB_OTG_BSP_ConfigVBUS)
    i.USB_OTG_BSP_DriveVBUS                  0x080087a0   Section        0  usb_bsp.o(i.USB_OTG_BSP_DriveVBUS)
    i.USB_OTG_BSP_EnableInterrupt            0x080087c0   Section        0  usb_bsp.o(i.USB_OTG_BSP_EnableInterrupt)
    i.USB_OTG_BSP_Init                       0x08008808   Section        0  usb_bsp.o(i.USB_OTG_BSP_Init)
    i.USB_OTG_BSP_TimeInit                   0x08008898   Section        0  usb_bsp.o(i.USB_OTG_BSP_TimeInit)
    USB_OTG_BSP_TimeInit                     0x08008899   Thumb Code    58  usb_bsp.o(i.USB_OTG_BSP_TimeInit)
    i.USB_OTG_BSP_TimerIRQ                   0x080088d4   Section        0  usb_bsp.o(i.USB_OTG_BSP_TimerIRQ)
    i.USB_OTG_BSP_mDelay                     0x0800890c   Section        0  usb_bsp.o(i.USB_OTG_BSP_mDelay)
    i.USB_OTG_BSP_uDelay                     0x0800891a   Section        0  usb_bsp.o(i.USB_OTG_BSP_uDelay)
    i.USB_OTG_CoreInit                       0x08008928   Section        0  usb_core.o(i.USB_OTG_CoreInit)
    i.USB_OTG_CoreInitHost                   0x08008af6   Section        0  usb_core.o(i.USB_OTG_CoreInitHost)
    i.USB_OTG_CoreReset                      0x08008bb8   Section        0  usb_core.o(i.USB_OTG_CoreReset)
    USB_OTG_CoreReset                        0x08008bb9   Thumb Code   108  usb_core.o(i.USB_OTG_CoreReset)
    i.USB_OTG_DisableGlobalInt               0x08008c28   Section        0  usb_core.o(i.USB_OTG_DisableGlobalInt)
    i.USB_OTG_DriveVbus                      0x08008c4a   Section        0  usb_core.o(i.USB_OTG_DriveVbus)
    i.USB_OTG_EnableCommonInt                0x08008ca6   Section        0  usb_core.o(i.USB_OTG_EnableCommonInt)
    USB_OTG_EnableCommonInt                  0x08008ca7   Thumb Code    48  usb_core.o(i.USB_OTG_EnableCommonInt)
    i.USB_OTG_EnableGlobalInt                0x08008cd6   Section        0  usb_core.o(i.USB_OTG_EnableGlobalInt)
    i.USB_OTG_EnableHostInt                  0x08008cf8   Section        0  usb_core.o(i.USB_OTG_EnableHostInt)
    i.USB_OTG_FlushRxFifo                    0x08008d6c   Section        0  usb_core.o(i.USB_OTG_FlushRxFifo)
    i.USB_OTG_FlushTxFifo                    0x08008db8   Section        0  usb_core.o(i.USB_OTG_FlushTxFifo)
    i.USB_OTG_GetMode                        0x08008e0c   Section        0  usb_core.o(i.USB_OTG_GetMode)
    i.USB_OTG_HC_DoPing                      0x08008e18   Section        0  usb_core.o(i.USB_OTG_HC_DoPing)
    i.USB_OTG_HC_Halt                        0x08008e72   Section        0  usb_core.o(i.USB_OTG_HC_Halt)
    i.USB_OTG_HC_Init                        0x08008ef0   Section        0  usb_core.o(i.USB_OTG_HC_Init)
    i.USB_OTG_HC_StartXfer                   0x08009128   Section        0  usb_core.o(i.USB_OTG_HC_StartXfer)
    i.USB_OTG_InitFSLSPClkSel                0x0800931e   Section        0  usb_core.o(i.USB_OTG_InitFSLSPClkSel)
    i.USB_OTG_IsEvenFrame                    0x08009336   Section        0  usb_core.o(i.USB_OTG_IsEvenFrame)
    i.USB_OTG_IsHostMode                     0x08009346   Section        0  usb_core.o(i.USB_OTG_IsHostMode)
    i.USB_OTG_ReadCoreItr                    0x0800935a   Section        0  usb_core.o(i.USB_OTG_ReadCoreItr)
    i.USB_OTG_ReadHPRT0                      0x0800936a   Section        0  usb_core.o(i.USB_OTG_ReadHPRT0)
    i.USB_OTG_ReadHostAllChannels_intr       0x0800939a   Section        0  usb_core.o(i.USB_OTG_ReadHostAllChannels_intr)
    i.USB_OTG_ReadPacket                     0x080093a2   Section        0  usb_core.o(i.USB_OTG_ReadPacket)
    i.USB_OTG_ResetPort                      0x080093ca   Section        0  usb_core.o(i.USB_OTG_ResetPort)
    i.USB_OTG_SelectCore                     0x0800940c   Section        0  usb_core.o(i.USB_OTG_SelectCore)
    i.USB_OTG_SetCurrentMode                 0x080094dc   Section        0  usb_core.o(i.USB_OTG_SetCurrentMode)
    i.USB_OTG_USBH_handle_Disconnect_ISR     0x0800952a   Section        0  usb_hcd_int.o(i.USB_OTG_USBH_handle_Disconnect_ISR)
    USB_OTG_USBH_handle_Disconnect_ISR       0x0800952b   Thumb Code    46  usb_hcd_int.o(i.USB_OTG_USBH_handle_Disconnect_ISR)
    i.USB_OTG_USBH_handle_IncompletePeriodicXfer_ISR 0x08009558   Section        0  usb_hcd_int.o(i.USB_OTG_USBH_handle_IncompletePeriodicXfer_ISR)
    USB_OTG_USBH_handle_IncompletePeriodicXfer_ISR 0x08009559   Thumb Code    70  usb_hcd_int.o(i.USB_OTG_USBH_handle_IncompletePeriodicXfer_ISR)
    i.USB_OTG_USBH_handle_hc_ISR             0x0800959e   Section        0  usb_hcd_int.o(i.USB_OTG_USBH_handle_hc_ISR)
    USB_OTG_USBH_handle_hc_ISR               0x0800959f   Thumb Code    86  usb_hcd_int.o(i.USB_OTG_USBH_handle_hc_ISR)
    i.USB_OTG_USBH_handle_hc_n_In_ISR        0x080095f4   Section        0  usb_hcd_int.o(i.USB_OTG_USBH_handle_hc_n_In_ISR)
    USB_OTG_USBH_handle_hc_n_In_ISR          0x080095f5   Thumb Code  1064  usb_hcd_int.o(i.USB_OTG_USBH_handle_hc_n_In_ISR)
    i.USB_OTG_USBH_handle_hc_n_Out_ISR       0x08009a1c   Section        0  usb_hcd_int.o(i.USB_OTG_USBH_handle_hc_n_Out_ISR)
    USB_OTG_USBH_handle_hc_n_Out_ISR         0x08009a1d   Thumb Code   904  usb_hcd_int.o(i.USB_OTG_USBH_handle_hc_n_Out_ISR)
    i.USB_OTG_USBH_handle_nptxfempty_ISR     0x08009da4   Section        0  usb_hcd_int.o(i.USB_OTG_USBH_handle_nptxfempty_ISR)
    USB_OTG_USBH_handle_nptxfempty_ISR       0x08009da5   Thumb Code   300  usb_hcd_int.o(i.USB_OTG_USBH_handle_nptxfempty_ISR)
    i.USB_OTG_USBH_handle_port_ISR           0x08009ed0   Section        0  usb_hcd_int.o(i.USB_OTG_USBH_handle_port_ISR)
    USB_OTG_USBH_handle_port_ISR             0x08009ed1   Thumb Code   280  usb_hcd_int.o(i.USB_OTG_USBH_handle_port_ISR)
    i.USB_OTG_USBH_handle_ptxfempty_ISR      0x08009fe8   Section        0  usb_hcd_int.o(i.USB_OTG_USBH_handle_ptxfempty_ISR)
    USB_OTG_USBH_handle_ptxfempty_ISR        0x08009fe9   Thumb Code   302  usb_hcd_int.o(i.USB_OTG_USBH_handle_ptxfempty_ISR)
    i.USB_OTG_USBH_handle_rx_qlvl_ISR        0x0800a116   Section        0  usb_hcd_int.o(i.USB_OTG_USBH_handle_rx_qlvl_ISR)
    USB_OTG_USBH_handle_rx_qlvl_ISR          0x0800a117   Thumb Code   356  usb_hcd_int.o(i.USB_OTG_USBH_handle_rx_qlvl_ISR)
    i.USB_OTG_USBH_handle_sof_ISR            0x0800a27a   Section        0  usb_hcd_int.o(i.USB_OTG_USBH_handle_sof_ISR)
    USB_OTG_USBH_handle_sof_ISR              0x0800a27b   Thumb Code    28  usb_hcd_int.o(i.USB_OTG_USBH_handle_sof_ISR)
    i.USB_OTG_WritePacket                    0x0800a296   Section        0  usb_core.o(i.USB_OTG_WritePacket)
    i.UnpackSFMPEG1                          0x0800a2d8   Section        0  scalfact.o(i.UnpackSFMPEG1)
    UnpackSFMPEG1                            0x0800a2d9   Thumb Code   444  scalfact.o(i.UnpackSFMPEG1)
    i.UnpackSFMPEG2                          0x0800a498   Section        0  scalfact.o(i.UnpackSFMPEG2)
    UnpackSFMPEG2                            0x0800a499   Thumb Code   672  scalfact.o(i.UnpackSFMPEG2)
    i.UsageFault_Handler                     0x0800a73c   Section        0  stm32f4xx_it.o(i.UsageFault_Handler)
    i.WinPrevious                            0x0800a740   Section        0  imdct.o(i.WinPrevious)
    WinPrevious                              0x0800a741   Thumb Code   336  imdct.o(i.WinPrevious)
    i.__0printf$bare                         0x0800a894   Section        0  printfb.o(i.__0printf$bare)
    i.__scatterload_copy                     0x0800a8a4   Section       14  handlers.o(i.__scatterload_copy)
    i.__scatterload_null                     0x0800a8b2   Section        2  handlers.o(i.__scatterload_null)
    i.__scatterload_zeroinit                 0x0800a8b4   Section       14  handlers.o(i.__scatterload_zeroinit)
    i._draw_circle_8                         0x0800a8c2   Section        0  lcd.o(i._draw_circle_8)
    i._printf_core                           0x0800a946   Section        0  printfb.o(i._printf_core)
    _printf_core                             0x0800a947   Thumb Code    34  printfb.o(i._printf_core)
    i.check_fs                               0x0800a968   Section        0  ff.o(i.check_fs)
    check_fs                                 0x0800a969   Thumb Code   138  ff.o(i.check_fs)
    i.chk_chr                                0x0800a9f8   Section        0  ff.o(i.chk_chr)
    chk_chr                                  0x0800a9f9   Thumb Code    20  ff.o(i.chk_chr)
    i.chk_mounted                            0x0800aa0c   Section        0  ff.o(i.chk_mounted)
    i.clust2sect                             0x0800ad24   Section        0  ff.o(i.clust2sect)
    i.cmp_lfn                                0x0800ad40   Section        0  ff.o(i.cmp_lfn)
    cmp_lfn                                  0x0800ad41   Thumb Code   138  ff.o(i.cmp_lfn)
    i.create_chain                           0x0800add0   Section        0  ff.o(i.create_chain)
    create_chain                             0x0800add1   Thumb Code   182  ff.o(i.create_chain)
    i.create_name                            0x0800ae88   Section        0  ff.o(i.create_name)
    create_name                              0x0800ae89   Thumb Code   596  ff.o(i.create_name)
    i.delay_init                             0x0800b0f0   Section        0  delay.o(i.delay_init)
    i.delay_ms                               0x0800b144   Section        0  delay.o(i.delay_ms)
    i.delay_us                               0x0800b194   Section        0  delay.o(i.delay_us)
    i.dir_find                               0x0800b1f0   Section        0  ff.o(i.dir_find)
    dir_find                                 0x0800b1f1   Thumb Code   222  ff.o(i.dir_find)
    i.dir_next                               0x0800b2ce   Section        0  ff.o(i.dir_next)
    dir_next                                 0x0800b2cf   Thumb Code   322  ff.o(i.dir_next)
    i.dir_read                               0x0800b410   Section        0  ff.o(i.dir_read)
    dir_read                                 0x0800b411   Thumb Code   190  ff.o(i.dir_read)
    i.dir_register                           0x0800b4ce   Section        0  ff.o(i.dir_register)
    dir_register                             0x0800b4cf   Thumb Code   396  ff.o(i.dir_register)
    i.dir_seek                               0x0800b65a   Section        0  ff.o(i.dir_seek)
    i.disk_initialize                        0x0800b738   Section        0  diskio.o(i.disk_initialize)
    i.disk_ioctl                             0x0800b78c   Section        0  diskio.o(i.disk_ioctl)
    i.disk_read                              0x0800b84c   Section        0  diskio.o(i.disk_read)
    i.disk_status                            0x0800b908   Section        0  diskio.o(i.disk_status)
    i.disk_write                             0x0800b92c   Section        0  diskio.o(i.disk_write)
    i.display_files_list                     0x0800b9e4   Section        0  main.o(i.display_files_list)
    i.display_scrollbar                      0x0800bb84   Section        0  main.o(i.display_scrollbar)
    i.display_time                           0x0800bbc8   Section        0  main.o(i.display_time)
    i.display_ui_end                         0x0800bc6c   Section        0  main.o(i.display_ui_end)
    i.display_ui_start                       0x0800bdd0   Section        0  main.o(i.display_ui_start)
    i.exf_getfree                            0x0800bf0c   Section        0  exfuns.o(i.exf_getfree)
    i.f_getfree                              0x0800bf72   Section        0  ff.o(i.f_getfree)
    i.f_mount                                0x0800c088   Section        0  ff.o(i.f_mount)
    i.f_open                                 0x0800c0b4   Section        0  ff.o(i.f_open)
    i.f_opendir                              0x0800c24c   Section        0  ff.o(i.f_opendir)
    i.f_read                                 0x0800c2bc   Section        0  ff.o(i.f_read)
    i.f_readdir                              0x0800c4b8   Section        0  ff.o(i.f_readdir)
    i.ff_convert                             0x0800c51c   Section        0  mycc936.o(i.ff_convert)
    i.ff_wtoupper                            0x0800c528   Section        0  mycc936.o(i.ff_wtoupper)
    i.fit_lfn                                0x0800c560   Section        0  ff.o(i.fit_lfn)
    fit_lfn                                  0x0800c561   Thumb Code   122  ff.o(i.fit_lfn)
    i.follow_path                            0x0800c5e0   Section        0  ff.o(i.follow_path)
    follow_path                              0x0800c5e1   Thumb Code   154  ff.o(i.follow_path)
    i.fputc                                  0x0800c67c   Section        0  usart.o(i.fputc)
    i.free                                   0x0800c698   Section        0  malloc.o(i.free)
    i.gen_numname                            0x0800c6e8   Section        0  ff.o(i.gen_numname)
    i.get_TF_free                            0x0800c790   Section        0  sd.o(i.get_TF_free)
    i.get_USB_free                           0x0800c840   Section        0  sd.o(i.get_USB_free)
    i.get_fat                                0x0800c8f0   Section        0  ff.o(i.get_fat)
    i.get_fattime                            0x0800ca46   Section        0  fattime.o(i.get_fattime)
    i.get_file_curindex                      0x0800ca4c   Section        0  mp3play.o(i.get_file_curindex)
    i.get_fileinfo                           0x0800ca58   Section        0  ff.o(i.get_fileinfo)
    get_fileinfo                             0x0800ca59   Thumb Code   312  ff.o(i.get_fileinfo)
    i.gui_circle                             0x0800cb90   Section        0  lcd.o(i.gui_circle)
    i.idct9                                  0x0800cc2c   Section        0  imdct.o(i.idct9)
    idct9                                    0x0800cc2d   Thumb Code   454  imdct.o(i.idct9)
    i.imdct12                                0x0800ce08   Section        0  imdct.o(i.imdct12)
    imdct12                                  0x0800ce09   Thumb Code   236  imdct.o(i.imdct12)
    i.key_test                               0x0800cefc   Section        0  producttest.o(i.key_test)
    i.lcd_test                               0x0800d10c   Section        0  producttest.o(i.lcd_test)
    i.led_task                               0x0800d454   Section        0  main.o(i.led_task)
    i.led_test                               0x0800d49c   Section        0  producttest.o(i.led_test)
    i.list_ctrl                              0x0800d7d0   Section        0  main.o(i.list_ctrl)
    i.main                                   0x0800d8a4   Section        0  main.o(i.main)
    i.malloc                                 0x0800d9fc   Section        0  malloc.o(i.malloc)
    i.mem_cmp                                0x0800da68   Section        0  ff.o(i.mem_cmp)
    mem_cmp                                  0x0800da69   Thumb Code    38  ff.o(i.mem_cmp)
    i.mem_cpy                                0x0800da8e   Section        0  ff.o(i.mem_cpy)
    mem_cpy                                  0x0800da8f   Thumb Code    26  ff.o(i.mem_cpy)
    i.mem_set                                0x0800daa8   Section        0  ff.o(i.mem_set)
    mem_set                                  0x0800daa9   Thumb Code    20  ff.o(i.mem_set)
    i.move_window                            0x0800dabc   Section        0  ff.o(i.move_window)
    move_window                              0x0800dabd   Thumb Code   114  ff.o(i.move_window)
    i.music_ctrl                             0x0800db30   Section        0  mp3play.o(i.music_ctrl)
    i.mypow                                  0x0800dc60   Section        0  lcd.o(i.mypow)
    i.pick_lfn                               0x0800dc78   Section        0  ff.o(i.pick_lfn)
    pick_lfn                                 0x0800dc79   Thumb Code   112  ff.o(i.pick_lfn)
    i.put_fat                                0x0800dcec   Section        0  ff.o(i.put_fat)
    i.remove_chain                           0x0800de7a   Section        0  ff.o(i.remove_chain)
    remove_chain                             0x0800de7b   Thumb Code   104  ff.o(i.remove_chain)
    i.reset_time                             0x0800dee4   Section        0  main.o(i.reset_time)
    i.start_task                             0x0800df1c   Section        0  main.o(i.start_task)
    i.sum_sfn                                0x0800df94   Section        0  ff.o(i.sum_sfn)
    sum_sfn                                  0x0800df95   Thumb Code    32  ff.o(i.sum_sfn)
    i.test_task                              0x0800dfb4   Section        0  main.o(i.test_task)
    i.tf_task                                0x0800dfe4   Section        0  main.o(i.tf_task)
    i.uart_init                              0x0800e070   Section        0  usart.o(i.uart_init)
    i.ui_task                                0x0800e124   Section        0  main.o(i.ui_task)
    i.usart_ctrl_music                       0x0800e20c   Section        0  usart.o(i.usart_ctrl_music)
    i.usart_test                             0x0800e3d4   Section        0  producttest.o(i.usart_test)
    i.usb_task                               0x0800e5a0   Section        0  main.o(i.usb_task)
    i.validate                               0x0800e5dc   Section        0  ff.o(i.validate)
    validate                                 0x0800e5dd   Thumb Code    42  ff.o(i.validate)
    i.xmp3_AllocateBuffers                   0x0800e608   Section        0  buffers.o(i.xmp3_AllocateBuffers)
    i.xmp3_CalcBitsUsed                      0x0800e69c   Section        0  bitstream.o(i.xmp3_CalcBitsUsed)
    i.xmp3_CheckPadBit                       0x0800e6ae   Section        0  bitstream.o(i.xmp3_CheckPadBit)
    i.xmp3_DecodeHuffman                     0x0800e6ca   Section        0  huffman.o(i.xmp3_DecodeHuffman)
    i.xmp3_DequantChannel                    0x0800e8e4   Section        0  dqchan.o(i.xmp3_DequantChannel)
    i.xmp3_Dequantize                        0x0800eb5c   Section        0  dequant.o(i.xmp3_Dequantize)
    i.xmp3_FDCT32                            0x0800ede0   Section        0  dct32.o(i.xmp3_FDCT32)
    i.xmp3_GetBits                           0x0800fb0c   Section        0  bitstream.o(i.xmp3_GetBits)
    i.xmp3_IMDCT                             0x0800fb5c   Section        0  imdct.o(i.xmp3_IMDCT)
    i.xmp3_IntensityProcMPEG1                0x0800fd58   Section        0  stproc.o(i.xmp3_IntensityProcMPEG1)
    i.xmp3_IntensityProcMPEG2                0x08010048   Section        0  stproc.o(i.xmp3_IntensityProcMPEG2)
    i.xmp3_MidSideProc                       0x08010314   Section        0  stproc.o(i.xmp3_MidSideProc)
    i.xmp3_SetBitstreamPointer               0x0801037e   Section        0  bitstream.o(i.xmp3_SetBitstreamPointer)
    i.xmp3_Subband                           0x0801038c   Section        0  subband.o(i.xmp3_Subband)
    i.xmp3_UnpackFrameHeader                 0x080104a0   Section        0  bitstream.o(i.xmp3_UnpackFrameHeader)
    i.xmp3_UnpackScaleFactors                0x08010694   Section        0  scalfact.o(i.xmp3_UnpackScaleFactors)
    i.xmp3_UnpackSideInfo                    0x080107bc   Section        0  bitstream.o(i.xmp3_UnpackSideInfo)
    .constdata                               0x080109e8   Section     4608  main.o(.constdata)
    .constdata                               0x08011be8   Section       10  producttest.o(.constdata)
    .constdata                               0x08011bf4   Section       82  ff.o(.constdata)
    LfnOfs                                   0x08011bf4   Data          13  ff.o(.constdata)
    sstbl                                    0x08011c04   Data          44  ff.o(.constdata)
    cstbl                                    0x08011c30   Data          22  ff.o(.constdata)
    .constdata                               0x08011c46   Section      960  mycc936.o(.constdata)
    tbl_lower                                0x08011c46   Data         480  mycc936.o(.constdata)
    tbl_upper                                0x08011e26   Data         480  mycc936.o(.constdata)
    .constdata                               0x08012006   Section    132684  lcd.o(.constdata)
    .constdata                               0x08032654   Section      192  dct32.o(.constdata)
    dcttab                                   0x08032654   Data         192  dct32.o(.constdata)
    .constdata                               0x08032714   Section      592  dqchan.o(.constdata)
    preTab                                   0x08032714   Data          22  dqchan.o(.constdata)
    pow14                                    0x0803272c   Data          16  dqchan.o(.constdata)
    pow43_14                                 0x0803273c   Data         256  dqchan.o(.constdata)
    pow43                                    0x0803283c   Data         192  dqchan.o(.constdata)
    poly43lo                                 0x080328fc   Data          20  dqchan.o(.constdata)
    poly43hi                                 0x08032910   Data          20  dqchan.o(.constdata)
    pow2exp                                  0x08032924   Data          32  dqchan.o(.constdata)
    pow2frac                                 0x08032944   Data          32  dqchan.o(.constdata)
    .constdata                               0x08032964   Section     8964  hufftabs.o(.constdata)
    .constdata                               0x08034c68   Section      120  imdct.o(.constdata)
    c18                                      0x08034c68   Data          36  imdct.o(.constdata)
    fastWin36                                0x08034c8c   Data          72  imdct.o(.constdata)
    c6                                       0x08034cd4   Data          12  imdct.o(.constdata)
    .constdata                               0x08034ce0   Section     1278  mp3tabs.o(.constdata)
    .constdata                               0x080351de   Section      104  scalfact.o(.constdata)
    SFLenTab                                 0x080351de   Data          32  scalfact.o(.constdata)
    NRTab                                    0x080351fe   Data          72  scalfact.o(.constdata)
    .constdata                               0x08035248   Section     2156  trigtabs.o(.constdata)
    .constdata                               0x08035ab4   Section      256  os_core.o(.constdata)
    .data                                    0x10000000   Section        6  main.o(.data)
    .data                                    0x10000008   Section       20  system_stm32f4xx.o(.data)
    .data                                    0x1000001c   Section       79  usbh_usr.o(.data)
    USBH_USR_ApplicationState                0x1000006a   Data           1  usbh_usr.o(.data)
    .data                                    0x1000006b   Section        1  producttest.o(.data)
    .data                                    0x1000006c   Section       10  ff.o(.data)
    FatFs                                    0x1000006c   Data           8  ff.o(.data)
    Fsid                                     0x10000074   Data           2  ff.o(.data)
    .data                                    0x10000076   Section        1  key.o(.data)
    key_up                                   0x10000076   Data           1  key.o(.data)
    .data                                    0x10000078   Section        6  lcd.o(.data)
    .data                                    0x10000080   Section       12  sd.o(.data)
    .data                                    0x1000008c   Section       64  codec.o(.data)
    .data                                    0x100000cc   Section        4  delay.o(.data)
    fac_us                                   0x100000cc   Data           1  delay.o(.data)
    fac_ms                                   0x100000ce   Data           2  delay.o(.data)
    .data                                    0x100000d0   Section       14  usbh_core.o(.data)
    timeout                                  0x100000dc   Data           2  usbh_core.o(.data)
    .data                                    0x100000e0   Section       29  usbh_msc_core.o(.data)
    maxLunExceed                             0x100000fc   Data           1  usbh_msc_core.o(.data)
    .data                                    0x10000100   Section        4  mvars.o(.data)
    .bss                                     0x10000104   Section      120  codec.o(.bss)
    .bss                                     0x1000017c   Section       60  usart.o(.bss)
    .bss                                     0x100001b8   Section       74  usbh_msc_core.o(.bss)
    .bss                                     0x10000204   Section     1040  usbh_msc_scsi.o(.bss)
    .data                                    0x20000000   Section       10  stm32f4xx_it.o(.data)
    .data                                    0x2000000c   Section        8  usb_bsp.o(.data)
    .data                                    0x20000014   Section       16  stm32f4xx_rcc.o(.data)
    APBAHBPrescTable                         0x20000014   Data          16  stm32f4xx_rcc.o(.data)
    .data                                    0x20000024   Section        1  diskio.o(.data)
    Stat                                     0x20000024   Data           1  diskio.o(.data)
    .data                                    0x20000028   Section        6  usart.o(.data)
    .data                                    0x20000030   Section       56  mp3play.o(.data)
    TimingDelay                              0x20000064   Data           4  mp3play.o(.data)
    .data                                    0x20000068   Section       13  usbh_msc_bot.o(.data)
    BOTStallErrorCount                       0x20000068   Data           4  usbh_msc_bot.o(.data)
    remainingDataLength                      0x2000006c   Data           4  usbh_msc_bot.o(.data)
    datapointer                              0x20000070   Data           4  usbh_msc_bot.o(.data)
    error_direction                          0x20000074   Data           1  usbh_msc_bot.o(.data)
    .data                                    0x20000075   Section        1  usbh_msc_scsi.o(.data)
    status                                   0x20000075   Data           1  usbh_msc_scsi.o(.data)
    .data                                    0x20000078   Section       72  os_core.o(.data)
    .data                                    0x200000c0   Section        4  rand.o(.data)
    _rand_state                              0x200000c0   Data           4  rand.o(.data)
    .data                                    0x200000c4   Section        4  mvars.o(.data)
    .bss                                     0x200000c8   Section    14216  main.o(.bss)
    .bss                                     0x20003850   Section     6332  usbh_usr.o(.bss)
    .bss                                     0x2000510c   Section     2152  exfuns.o(.bss)
    .bss                                     0x20005974   Section       14  lcd.o(.bss)
    .bss                                     0x20005984   Section    23816  buffers.o(.bss)
    .bss                                     0x2000b68c   Section    13256  mp3play.o(.bss)
    .bss                                     0x2000ea54   Section       64  usbh_msc_bot.o(.bss)
    .bss                                     0x2000ea94   Section     2688  os_core.o(.bss)
    HEAP                                     0x2000f518   Section      256  startup_stm32f4xx.o(HEAP)
    STACK                                    0x2000f618   Section     4096  startup_stm32f4xx.o(STACK)

    Global Symbols

    Symbol Name                              Value     Ov Type        Size  Object(Section)

    BuildAttributes$$THM_ISAv4$E$P$D$K$B$S$7EM$VFPi3$EXTD16$VFPS$VFMA$PE$A:L22UL41UL21$X:L11$S22US41US21$IEEE1$IW$USESV6$~STKCKD$USESV7$~SHL$OSPACE$ROPI$EBA8$MICROLIB$REQ8$PRES8$EABIv2 0x00000000   Number         0  anon$$obj.o ABSOLUTE
    __ARM_use_no_argv                        0x00000000   Number         0  main.o ABSOLUTE
    __use_no_errno                           0x00000000   Number         0  useno.o ABSOLUTE
    __use_no_exception_handling              0x00000000   Number         0  useno.o ABSOLUTE
    __use_no_fp                              0x00000000   Number         0  useno.o ABSOLUTE
    __use_no_heap                            0x00000000   Number         0  useno.o ABSOLUTE
    __use_no_heap_region                     0x00000000   Number         0  useno.o ABSOLUTE
    __use_no_semihosting                     0x00000000   Number         0  useno.o ABSOLUTE
    __use_no_semihosting_swi                 0x00000000   Number         0  useno.o ABSOLUTE
    __use_no_signal_handling                 0x00000000   Number         0  useno.o ABSOLUTE
    __cpp_initialize__aeabi_                  - Undefined Weak Reference
    __cxa_finalize                            - Undefined Weak Reference
    _clock_init                               - Undefined Weak Reference
    _microlib_exit                            - Undefined Weak Reference
    __Vectors_Size                           0x00000188   Number         0  startup_stm32f4xx.o ABSOLUTE
    __Vectors                                0x08000000   Data           4  startup_stm32f4xx.o(RESET)
    __Vectors_End                            0x08000188   Data           0  startup_stm32f4xx.o(RESET)
    __main                                   0x08000189   Thumb Code     0  entry.o(.ARM.Collect$$$$00000000)
    _main_stk                                0x08000189   Thumb Code     0  entry2.o(.ARM.Collect$$$$00000001)
    _main_scatterload                        0x0800018d   Thumb Code     0  entry5.o(.ARM.Collect$$$$00000004)
    __main_after_scatterload                 0x08000191   Thumb Code     0  entry5.o(.ARM.Collect$$$$00000004)
    _main_clock                              0x08000191   Thumb Code     0  entry7b.o(.ARM.Collect$$$$00000008)
    _main_cpp_init                           0x08000191   Thumb Code     0  entry8b.o(.ARM.Collect$$$$0000000A)
    _main_init                               0x08000191   Thumb Code     0  entry9a.o(.ARM.Collect$$$$0000000B)
    __rt_final_cpp                           0x08000199   Thumb Code     0  entry10a.o(.ARM.Collect$$$$0000000D)
    __rt_final_exit                          0x08000199   Thumb Code     0  entry11a.o(.ARM.Collect$$$$0000000F)
    Reset_Handler                            0x0800019d   Thumb Code     8  startup_stm32f4xx.o(.text)
    ADC_IRQHandler                           0x080001b7   Thumb Code     0  startup_stm32f4xx.o(.text)
    CAN1_RX0_IRQHandler                      0x080001b7   Thumb Code     0  startup_stm32f4xx.o(.text)
    CAN1_RX1_IRQHandler                      0x080001b7   Thumb Code     0  startup_stm32f4xx.o(.text)
    CAN1_SCE_IRQHandler                      0x080001b7   Thumb Code     0  startup_stm32f4xx.o(.text)
    CAN1_TX_IRQHandler                       0x080001b7   Thumb Code     0  startup_stm32f4xx.o(.text)
    CAN2_RX0_IRQHandler                      0x080001b7   Thumb Code     0  startup_stm32f4xx.o(.text)
    CAN2_RX1_IRQHandler                      0x080001b7   Thumb Code     0  startup_stm32f4xx.o(.text)
    CAN2_SCE_IRQHandler                      0x080001b7   Thumb Code     0  startup_stm32f4xx.o(.text)
    CAN2_TX_IRQHandler                       0x080001b7   Thumb Code     0  startup_stm32f4xx.o(.text)
    CRYP_IRQHandler                          0x080001b7   Thumb Code     0  startup_stm32f4xx.o(.text)
    DCMI_IRQHandler                          0x080001b7   Thumb Code     0  startup_stm32f4xx.o(.text)
    DMA1_Stream1_IRQHandler                  0x080001b7   Thumb Code     0  startup_stm32f4xx.o(.text)
    DMA1_Stream2_IRQHandler                  0x080001b7   Thumb Code     0  startup_stm32f4xx.o(.text)
    DMA1_Stream3_IRQHandler                  0x080001b7   Thumb Code     0  startup_stm32f4xx.o(.text)
    DMA1_Stream4_IRQHandler                  0x080001b7   Thumb Code     0  startup_stm32f4xx.o(.text)
    DMA1_Stream5_IRQHandler                  0x080001b7   Thumb Code     0  startup_stm32f4xx.o(.text)
    DMA1_Stream6_IRQHandler                  0x080001b7   Thumb Code     0  startup_stm32f4xx.o(.text)
    DMA2_Stream0_IRQHandler                  0x080001b7   Thumb Code     0  startup_stm32f4xx.o(.text)
    DMA2_Stream1_IRQHandler                  0x080001b7   Thumb Code     0  startup_stm32f4xx.o(.text)
    DMA2_Stream2_IRQHandler                  0x080001b7   Thumb Code     0  startup_stm32f4xx.o(.text)
    DMA2_Stream3_IRQHandler                  0x080001b7   Thumb Code     0  startup_stm32f4xx.o(.text)
    DMA2_Stream4_IRQHandler                  0x080001b7   Thumb Code     0  startup_stm32f4xx.o(.text)
    DMA2_Stream5_IRQHandler                  0x080001b7   Thumb Code     0  startup_stm32f4xx.o(.text)
    DMA2_Stream6_IRQHandler                  0x080001b7   Thumb Code     0  startup_stm32f4xx.o(.text)
    DMA2_Stream7_IRQHandler                  0x080001b7   Thumb Code     0  startup_stm32f4xx.o(.text)
    ETH_IRQHandler                           0x080001b7   Thumb Code     0  startup_stm32f4xx.o(.text)
    ETH_WKUP_IRQHandler                      0x080001b7   Thumb Code     0  startup_stm32f4xx.o(.text)
    EXTI15_10_IRQHandler                     0x080001b7   Thumb Code     0  startup_stm32f4xx.o(.text)
    EXTI2_IRQHandler                         0x080001b7   Thumb Code     0  startup_stm32f4xx.o(.text)
    EXTI3_IRQHandler                         0x080001b7   Thumb Code     0  startup_stm32f4xx.o(.text)
    EXTI4_IRQHandler                         0x080001b7   Thumb Code     0  startup_stm32f4xx.o(.text)
    EXTI9_5_IRQHandler                       0x080001b7   Thumb Code     0  startup_stm32f4xx.o(.text)
    FLASH_IRQHandler                         0x080001b7   Thumb Code     0  startup_stm32f4xx.o(.text)
    FPU_IRQHandler                           0x080001b7   Thumb Code     0  startup_stm32f4xx.o(.text)
    FSMC_IRQHandler                          0x080001b7   Thumb Code     0  startup_stm32f4xx.o(.text)
    HASH_RNG_IRQHandler                      0x080001b7   Thumb Code     0  startup_stm32f4xx.o(.text)
    I2C1_ER_IRQHandler                       0x080001b7   Thumb Code     0  startup_stm32f4xx.o(.text)
    I2C1_EV_IRQHandler                       0x080001b7   Thumb Code     0  startup_stm32f4xx.o(.text)
    I2C2_ER_IRQHandler                       0x080001b7   Thumb Code     0  startup_stm32f4xx.o(.text)
    I2C2_EV_IRQHandler                       0x080001b7   Thumb Code     0  startup_stm32f4xx.o(.text)
    I2C3_ER_IRQHandler                       0x080001b7   Thumb Code     0  startup_stm32f4xx.o(.text)
    I2C3_EV_IRQHandler                       0x080001b7   Thumb Code     0  startup_stm32f4xx.o(.text)
    OTG_FS_WKUP_IRQHandler                   0x080001b7   Thumb Code     0  startup_stm32f4xx.o(.text)
    OTG_HS_EP1_IN_IRQHandler                 0x080001b7   Thumb Code     0  startup_stm32f4xx.o(.text)
    OTG_HS_EP1_OUT_IRQHandler                0x080001b7   Thumb Code     0  startup_stm32f4xx.o(.text)
    OTG_HS_IRQHandler                        0x080001b7   Thumb Code     0  startup_stm32f4xx.o(.text)
    OTG_HS_WKUP_IRQHandler                   0x080001b7   Thumb Code     0  startup_stm32f4xx.o(.text)
    PVD_IRQHandler                           0x080001b7   Thumb Code     0  startup_stm32f4xx.o(.text)
    RCC_IRQHandler                           0x080001b7   Thumb Code     0  startup_stm32f4xx.o(.text)
    RTC_Alarm_IRQHandler                     0x080001b7   Thumb Code     0  startup_stm32f4xx.o(.text)
    RTC_WKUP_IRQHandler                      0x080001b7   Thumb Code     0  startup_stm32f4xx.o(.text)
    SDIO_IRQHandler                          0x080001b7   Thumb Code     0  startup_stm32f4xx.o(.text)
    SPI1_IRQHandler                          0x080001b7   Thumb Code     0  startup_stm32f4xx.o(.text)
    SPI2_IRQHandler                          0x080001b7   Thumb Code     0  startup_stm32f4xx.o(.text)
    TAMP_STAMP_IRQHandler                    0x080001b7   Thumb Code     0  startup_stm32f4xx.o(.text)
    TIM1_BRK_TIM9_IRQHandler                 0x080001b7   Thumb Code     0  startup_stm32f4xx.o(.text)
    TIM1_CC_IRQHandler                       0x080001b7   Thumb Code     0  startup_stm32f4xx.o(.text)
    TIM1_TRG_COM_TIM11_IRQHandler            0x080001b7   Thumb Code     0  startup_stm32f4xx.o(.text)
    TIM1_UP_TIM10_IRQHandler                 0x080001b7   Thumb Code     0  startup_stm32f4xx.o(.text)
    TIM3_IRQHandler                          0x080001b7   Thumb Code     0  startup_stm32f4xx.o(.text)
    TIM5_IRQHandler                          0x080001b7   Thumb Code     0  startup_stm32f4xx.o(.text)
    TIM6_DAC_IRQHandler                      0x080001b7   Thumb Code     0  startup_stm32f4xx.o(.text)
    TIM7_IRQHandler                          0x080001b7   Thumb Code     0  startup_stm32f4xx.o(.text)
    TIM8_BRK_TIM12_IRQHandler                0x080001b7   Thumb Code     0  startup_stm32f4xx.o(.text)
    TIM8_CC_IRQHandler                       0x080001b7   Thumb Code     0  startup_stm32f4xx.o(.text)
    TIM8_TRG_COM_TIM14_IRQHandler            0x080001b7   Thumb Code     0  startup_stm32f4xx.o(.text)
    TIM8_UP_TIM13_IRQHandler                 0x080001b7   Thumb Code     0  startup_stm32f4xx.o(.text)
    UART4_IRQHandler                         0x080001b7   Thumb Code     0  startup_stm32f4xx.o(.text)
    UART5_IRQHandler                         0x080001b7   Thumb Code     0  startup_stm32f4xx.o(.text)
    USART1_IRQHandler                        0x080001b7   Thumb Code     0  startup_stm32f4xx.o(.text)
    USART2_IRQHandler                        0x080001b7   Thumb Code     0  startup_stm32f4xx.o(.text)
    USART6_IRQHandler                        0x080001b7   Thumb Code     0  startup_stm32f4xx.o(.text)
    WWDG_IRQHandler                          0x080001b7   Thumb Code     0  startup_stm32f4xx.o(.text)
    xmp3_MULSHIFT32                          0x080001c1   Thumb Code     0  asmmisc.o(.text)
    xmp3_FASTABS                             0x080001c7   Thumb Code     0  asmmisc.o(.text)
    xmp3_PolyphaseStereo                     0x080001c9   Thumb Code  1308  asmpoly_thumb2.o(.text)
    xmp3_PolyphaseMono                       0x080006e5   Thumb Code   754  asmpoly_thumb2.o(.text)
    OS_CPU_SR_Save                           0x080009d9   Thumb Code     0  os_cpu_a.o(.text)
    OS_CPU_SR_Restore                        0x080009e1   Thumb Code     0  os_cpu_a.o(.text)
    OSStartHighRdy                           0x080009e7   Thumb Code     0  os_cpu_a.o(.text)
    OSCtxSw                                  0x08000a0b   Thumb Code     0  os_cpu_a.o(.text)
    OSIntCtxSw                               0x08000a19   Thumb Code     0  os_cpu_a.o(.text)
    PendSV_Handler                           0x08000a29   Thumb Code     0  os_cpu_a.o(.text)
    rand                                     0x08000aa1   Thumb Code    20  rand.o(.text)
    srand                                    0x08000ab5   Thumb Code     6  rand.o(.text)
    ___aeabi_memcpy4$move                    0x08000ac5   Thumb Code     0  memmovea.o(.text)
    ___aeabi_memcpy8$move                    0x08000ac5   Thumb Code     0  memmovea.o(.text)
    __aeabi_memcpy                           0x08000ac5   Thumb Code    64  memmovea.o(.text)
    __aeabi_memmove                          0x08000ac5   Thumb Code     0  memmovea.o(.text)
    __aeabi_memmove4                         0x08000ac5   Thumb Code     0  memmovea.o(.text)
    __aeabi_memmove8                         0x08000ac5   Thumb Code     0  memmovea.o(.text)
    __aeabi_memset                           0x08000b05   Thumb Code    14  memseta.o(.text)
    __aeabi_memset4                          0x08000b05   Thumb Code     0  memseta.o(.text)
    __aeabi_memset8                          0x08000b05   Thumb Code     0  memseta.o(.text)
    __aeabi_memclr                           0x08000b13   Thumb Code     4  memseta.o(.text)
    __aeabi_memclr4                          0x08000b13   Thumb Code     0  memseta.o(.text)
    __aeabi_memclr8                          0x08000b13   Thumb Code     0  memseta.o(.text)
    _memset$wrapper                          0x08000b17   Thumb Code    18  memseta.o(.text)
    strcat                                   0x08000b29   Thumb Code    24  strcat.o(.text)
    strstr                                   0x08000b41   Thumb Code    36  strstr.o(.text)
    strncpy                                  0x08000b65   Thumb Code    24  strncpy.o(.text)
    strlen                                   0x08000b7d   Thumb Code    14  strlen.o(.text)
    strcmp                                   0x08000b8b   Thumb Code    28  strcmp.o(.text)
    strcpy                                   0x08000ba7   Thumb Code    18  strcpy.o(.text)
    strncmp                                  0x08000bb9   Thumb Code    30  strncmp.o(.text)
    __scatterload                            0x08000bd9   Thumb Code    28  init.o(.text)
    __scatterload_rt2                        0x08000bd9   Thumb Code     0  init.o(.text)
    __decompress                             0x08000bfd   Thumb Code     0  __dczerorl2.o(.text)
    __decompress1                            0x08000bfd   Thumb Code    86  __dczerorl2.o(.text)
    Audio_MAL_Play                           0x080010dd   Thumb Code    92  codec.o(i.Audio_MAL_Play)
    BusFault_Handler                         0x0800122f   Thumb Code     4  stm32f4xx_it.o(i.BusFault_Handler)
    COMMAND_AudioExecuteApplication          0x0800126d   Thumb Code    46  usbh_usr.o(i.COMMAND_AudioExecuteApplication)
    CSPin_Init                               0x080012b1   Thumb Code    56  sd.o(i.CSPin_Init)
    ClearBuffer                              0x080012ed   Thumb Code    22  buffers.o(i.ClearBuffer)
    Codec_TIMEOUT_UserCallback               0x08001865   Thumb Code     4  mp3play.o(i.Codec_TIMEOUT_UserCallback)
    DAC_Cmd                                  0x080019d9   Thumb Code    34  stm32f4xx_dac.o(i.DAC_Cmd)
    DAC_Config                               0x08001a01   Thumb Code    70  codec.o(i.DAC_Config)
    DAC_Init                                 0x08001a51   Thumb Code    46  stm32f4xx_dac.o(i.DAC_Init)
    DAC_SetChannel1Data                      0x08001a85   Thumb Code    26  stm32f4xx_dac.o(i.DAC_SetChannel1Data)
    DMA1_Stream0_IRQHandler                  0x08001aa5   Thumb Code     8  codec.o(i.DMA1_Stream0_IRQHandler)
    DMA1_Stream7_IRQHandler                  0x08001aad   Thumb Code     8  codec.o(i.DMA1_Stream7_IRQHandler)
    DMA_ClearFlag                            0x08001ab5   Thumb Code    38  stm32f4xx_dma.o(i.DMA_ClearFlag)
    DMA_Cmd                                  0x08001ae9   Thumb Code    22  stm32f4xx_dma.o(i.DMA_Cmd)
    DMA_DeInit                               0x08001b01   Thumb Code   324  stm32f4xx_dma.o(i.DMA_DeInit)
    DMA_GetCmdStatus                         0x08001c59   Thumb Code    20  stm32f4xx_dma.o(i.DMA_GetCmdStatus)
    DMA_GetFlagStatus                        0x08001c6d   Thumb Code    54  stm32f4xx_dma.o(i.DMA_GetFlagStatus)
    DMA_ITConfig                             0x08001cb1   Thumb Code    58  stm32f4xx_dma.o(i.DMA_ITConfig)
    DMA_Init                                 0x08001ced   Thumb Code    82  stm32f4xx_dma.o(i.DMA_Init)
    DebugMon_Handler                         0x08001d45   Thumb Code     2  stm32f4xx_it.o(i.DebugMon_Handler)
    DrawPage                                 0x08002419   Thumb Code   102  lcd.o(i.DrawPage)
    EVAL_AUDIO_GetSampleCallBack             0x08002489   Thumb Code     4  mp3play.o(i.EVAL_AUDIO_GetSampleCallBack)
    EVAL_AUDIO_Init                          0x0800248d   Thumb Code    58  codec.o(i.EVAL_AUDIO_Init)
    EVAL_AUDIO_PauseResume                   0x080024c7   Thumb Code    28  codec.o(i.EVAL_AUDIO_PauseResume)
    EVAL_AUDIO_SetAudioInterface             0x080024e5   Thumb Code   156  codec.o(i.EVAL_AUDIO_SetAudioInterface)
    EVAL_AUDIO_Stop                          0x080025c1   Thumb Code    32  codec.o(i.EVAL_AUDIO_Stop)
    EVAL_AUDIO_TransferComplete_CallBack     0x080025e9   Thumb Code     8  mp3play.o(i.EVAL_AUDIO_TransferComplete_CallBack)
    EVAL_AUDIO_VolumeCtl                     0x080025f5   Thumb Code    32  codec.o(i.EVAL_AUDIO_VolumeCtl)
    EXTI0_IRQHandler                         0x08002615   Thumb Code    72  stm32f4xx_it.o(i.EXTI0_IRQHandler)
    EXTI1_IRQHandler                         0x08002669   Thumb Code     2  stm32f4xx_it.o(i.EXTI1_IRQHandler)
    EXTI_ClearITPendingBit                   0x0800266d   Thumb Code     6  stm32f4xx_exti.o(i.EXTI_ClearITPendingBit)
    EXTI_GetITStatus                         0x08002679   Thumb Code    34  stm32f4xx_exti.o(i.EXTI_GetITStatus)
    GPIO_Init                                0x080028a5   Thumb Code   144  stm32f4xx_gpio.o(i.GPIO_Init)
    GPIO_PinAFConfig                         0x08002935   Thumb Code    70  stm32f4xx_gpio.o(i.GPIO_PinAFConfig)
    GPIO_ResetBits                           0x0800297b   Thumb Code     4  stm32f4xx_gpio.o(i.GPIO_ResetBits)
    GPIO_SetBits                             0x0800297f   Thumb Code     4  stm32f4xx_gpio.o(i.GPIO_SetBits)
    GPIO_WriteBit                            0x08002983   Thumb Code    10  stm32f4xx_gpio.o(i.GPIO_WriteBit)
    GUI_DrawFont16                           0x0800298d   Thumb Code   254  lcd.o(i.GUI_DrawFont16)
    GUI_DrawFont24                           0x08002a99   Thumb Code   268  lcd.o(i.GUI_DrawFont24)
    GUI_DrawFont32                           0x08002bb1   Thumb Code   252  lcd.o(i.GUI_DrawFont32)
    GUI_DrawPoint                            0x08002cb9   Thumb Code    24  lcd.o(i.GUI_DrawPoint)
    Gui_StrCenter                            0x08002cd1   Thumb Code    68  lcd.o(i.Gui_StrCenter)
    Gui_icon                                 0x08002d19   Thumb Code    90  lcd.o(i.Gui_icon)
    HCD_GetCurrentFrame                      0x08002d79   Thumb Code    10  usb_hcd.o(i.HCD_GetCurrentFrame)
    HCD_GetCurrentSpeed                      0x08002d83   Thumb Code    20  usb_hcd.o(i.HCD_GetCurrentSpeed)
    HCD_GetURB_State                         0x08002d97   Thumb Code    10  usb_hcd.o(i.HCD_GetURB_State)
    HCD_GetXferCnt                           0x08002da1   Thumb Code    12  usb_hcd.o(i.HCD_GetXferCnt)
    HCD_Init                                 0x08002dad   Thumb Code    96  usb_hcd.o(i.HCD_Init)
    HCD_IsDeviceConnected                    0x08002e0d   Thumb Code     8  usb_hcd.o(i.HCD_IsDeviceConnected)
    HCD_ResetPort                            0x08002e15   Thumb Code    14  usb_hcd.o(i.HCD_ResetPort)
    HCD_SubmitRequest                        0x08002e23   Thumb Code    32  usb_hcd.o(i.HCD_SubmitRequest)
    HardFault_Handler                        0x08002e43   Thumb Code     4  stm32f4xx_it.o(i.HardFault_Handler)
    I2C_AcknowledgeConfig                    0x08002fc3   Thumb Code    24  stm32f4xx_i2c.o(i.I2C_AcknowledgeConfig)
    I2C_CheckEvent                           0x08002fdb   Thumb Code    42  stm32f4xx_i2c.o(i.I2C_CheckEvent)
    I2C_ClearFlag                            0x08003005   Thumb Code    12  stm32f4xx_i2c.o(i.I2C_ClearFlag)
    I2C_Cmd                                  0x08003011   Thumb Code    24  stm32f4xx_i2c.o(i.I2C_Cmd)
    I2C_DeInit                               0x08003029   Thumb Code    82  stm32f4xx_i2c.o(i.I2C_DeInit)
    I2C_GenerateSTART                        0x08003089   Thumb Code    24  stm32f4xx_i2c.o(i.I2C_GenerateSTART)
    I2C_GenerateSTOP                         0x080030a1   Thumb Code    24  stm32f4xx_i2c.o(i.I2C_GenerateSTOP)
    I2C_GetFlagStatus                        0x080030b9   Thumb Code    58  stm32f4xx_i2c.o(i.I2C_GetFlagStatus)
    I2C_Init                                 0x080030f5   Thumb Code   218  stm32f4xx_i2c.o(i.I2C_Init)
    I2C_ReceiveData                          0x080031dd   Thumb Code     8  stm32f4xx_i2c.o(i.I2C_ReceiveData)
    I2C_Send7bitAddress                      0x080031e5   Thumb Code    16  stm32f4xx_i2c.o(i.I2C_Send7bitAddress)
    I2C_SendData                             0x080031f5   Thumb Code     4  stm32f4xx_i2c.o(i.I2C_SendData)
    I2S_Cmd                                  0x080031f9   Thumb Code    24  stm32f4xx_spi.o(i.I2S_Cmd)
    I2S_Init                                 0x08003211   Thumb Code   350  stm32f4xx_spi.o(i.I2S_Init)
    KEY_Init                                 0x080037ad   Thumb Code   114  key.o(i.KEY_Init)
    KEY_Scan                                 0x0800382d   Thumb Code   294  key.o(i.KEY_Scan)
    LCD_Clear                                0x08003965   Thumb Code   102  lcd.o(i.LCD_Clear)
    LCD_DrawFillRectangle                    0x080039d9   Thumb Code    36  lcd.o(i.LCD_DrawFillRectangle)
    LCD_DrawLine                             0x080039fd   Thumb Code   176  lcd.o(i.LCD_DrawLine)
    LCD_DrawPoint                            0x08003aad   Thumb Code    74  lcd.o(i.LCD_DrawPoint)
    LCD_DrawPoint_16Bit                      0x08003b05   Thumb Code    52  lcd.o(i.LCD_DrawPoint_16Bit)
    LCD_DrawRectangle                        0x08003b41   Thumb Code    60  lcd.o(i.LCD_DrawRectangle)
    LCD_Fill                                 0x08003b7d   Thumb Code   168  lcd.o(i.LCD_Fill)
    LCD_GPIOInit                             0x08003c31   Thumb Code    78  lcd.o(i.LCD_GPIOInit)
    LCD_Init                                 0x08003c89   Thumb Code   574  lcd.o(i.LCD_Init)
    LCD_RESET                                0x08003ecd   Thumb Code    34  lcd.o(i.LCD_RESET)
    LCD_SetCursor                            0x08003ef9   Thumb Code    52  lcd.o(i.LCD_SetCursor)
    LCD_SetParam                             0x08003f31   Thumb Code    40  lcd.o(i.LCD_SetParam)
    LCD_SetWindows                           0x08003f5d   Thumb Code    78  lcd.o(i.LCD_SetWindows)
    LCD_ShowChar                             0x08003fb1   Thumb Code   276  lcd.o(i.LCD_ShowChar)
    LCD_ShowNum                              0x080040d5   Thumb Code   168  lcd.o(i.LCD_ShowNum)
    LCD_ShowString                           0x08004185   Thumb Code    94  lcd.o(i.LCD_ShowString)
    LCD_WR_DATA                              0x080041f1   Thumb Code    30  lcd.o(i.LCD_WR_DATA)
    LCD_WR_REG                               0x08004219   Thumb Code    28  lcd.o(i.LCD_WR_REG)
    LCD_WriteRAM_Prepare                     0x0800423d   Thumb Code    12  lcd.o(i.LCD_WriteRAM_Prepare)
    LCD_WriteReg                             0x0800424d   Thumb Code    20  lcd.o(i.LCD_WriteReg)
    LED_Init                                 0x08004261   Thumb Code    50  led.o(i.LED_Init)
    Lcd_Delay                                0x08004299   Thumb Code    18  lcd.o(i.Lcd_Delay)
    MP3Decode                                0x080042ad   Thumb Code   804  mp3dec.o(i.MP3Decode)
    MP3FindSyncWord                          0x08004635   Thumb Code    44  mp3dec.o(i.MP3FindSyncWord)
    MP3GetLastFrameInfo                      0x08004661   Thumb Code    94  mp3dec.o(i.MP3GetLastFrameInfo)
    MP3InitDecoder                           0x080046c5   Thumb Code    12  mp3dec.o(i.MP3InitDecoder)
    MemManage_Handler                        0x080046d1   Thumb Code     4  stm32f4xx_it.o(i.MemManage_Handler)
    Mp3PlayerInit                            0x080046d5   Thumb Code    26  mp3play.o(i.Mp3PlayerInit)
    Mp3PlayerPauseResume                     0x080046f5   Thumb Code    12  mp3play.o(i.Mp3PlayerPauseResume)
    Mp3PlayerStart                           0x08004701   Thumb Code   840  mp3play.o(i.Mp3PlayerStart)
    Mp3PlayerStop                            0x08004ab9   Thumb Code    10  mp3play.o(i.Mp3PlayerStop)
    Mp3Player_CallBack                       0x08004ac5   Thumb Code    60  mp3play.o(i.Mp3Player_CallBack)
    Mp3playerCtrlVolume                      0x08004b1d   Thumb Code    14  mp3play.o(i.Mp3playerCtrlVolume)
    NMI_Handler                              0x08004b2b   Thumb Code     2  stm32f4xx_it.o(i.NMI_Handler)
    NVIC_Init                                0x08004b2d   Thumb Code   106  misc.o(i.NVIC_Init)
    NVIC_PriorityGroupConfig                 0x08004ba5   Thumb Code    10  misc.o(i.NVIC_PriorityGroupConfig)
    NVIC_SetVectorTable                      0x08004bb9   Thumb Code    12  misc.o(i.NVIC_SetVectorTable)
    OSInit                                   0x08004bcd   Thumb Code    44  os_core.o(i.OSInit)
    OSInitHookBegin                          0x08004bf9   Thumb Code     2  os_cpu_c.o(i.OSInitHookBegin)
    OSInitHookEnd                            0x08004bfb   Thumb Code     2  os_cpu_c.o(i.OSInitHookEnd)
    OSIntEnter                               0x08004bfd   Thumb Code    28  os_core.o(i.OSIntEnter)
    OSIntExit                                0x08004c21   Thumb Code   112  os_core.o(i.OSIntExit)
    OSSchedLock                              0x08004cb1   Thumb Code    50  os_core.o(i.OSSchedLock)
    OSSchedUnlock                            0x08004cf1   Thumb Code    82  os_core.o(i.OSSchedUnlock)
    OSStart                                  0x08004d51   Thumb Code    48  os_core.o(i.OSStart)
    OSStatInit                               0x08004d99   Thumb Code    62  os_core.o(i.OSStatInit)
    OSTCBInitHook                            0x08004de5   Thumb Code     2  os_cpu_c.o(i.OSTCBInitHook)
    OSTaskCreate                             0x08004de9   Thumb Code   148  os_task.o(i.OSTaskCreate)
    OSTaskCreateExt                          0x08004e89   Thumb Code   170  os_task.o(i.OSTaskCreateExt)
    OSTaskCreateHook                         0x08004f41   Thumb Code     2  os_cpu_c.o(i.OSTaskCreateHook)
    OSTaskDel                                0x08004f45   Thumb Code   294  os_task.o(i.OSTaskDel)
    OSTaskDelHook                            0x08005099   Thumb Code     2  os_cpu_c.o(i.OSTaskDelHook)
    OSTaskIdleHook                           0x0800509b   Thumb Code     2  os_cpu_c.o(i.OSTaskIdleHook)
    OSTaskNameSet                            0x0800509d   Thumb Code    98  os_task.o(i.OSTaskNameSet)
    OSTaskReturnHook                         0x0800510d   Thumb Code     2  os_cpu_c.o(i.OSTaskReturnHook)
    OSTaskStatHook                           0x0800510f   Thumb Code     2  os_cpu_c.o(i.OSTaskStatHook)
    OSTaskStkChk                             0x08005111   Thumb Code   132  os_task.o(i.OSTaskStkChk)
    OSTaskStkInit                            0x0800519d   Thumb Code   152  os_cpu_c.o(i.OSTaskStkInit)
    OSTaskSuspend                            0x08005239   Thumb Code   152  os_task.o(i.OSTaskSuspend)
    OSTaskSwHook                             0x080052e1   Thumb Code     2  os_cpu_c.o(i.OSTaskSwHook)
    OSTimeDly                                0x080052e5   Thumb Code   100  os_time.o(i.OSTimeDly)
    OSTimeTick                               0x0800535d   Thumb Code   210  os_core.o(i.OSTimeTick)
    OSTimeTickHook                           0x08005449   Thumb Code     2  os_cpu_c.o(i.OSTimeTickHook)
    OS_Dummy                                 0x0800544b   Thumb Code     2  os_core.o(i.OS_Dummy)
    OS_EventTaskRemove                       0x0800544d   Thumb Code    42  os_core.o(i.OS_EventTaskRemove)
    OS_FlagInit                              0x08005479   Thumb Code    74  os_flag.o(i.OS_FlagInit)
    OS_FlagUnlink                            0x080054d1   Thumb Code    36  os_flag.o(i.OS_FlagUnlink)
    OS_MemClr                                0x08005701   Thumb Code    18  os_core.o(i.OS_MemClr)
    OS_QInit                                 0x08005715   Thumb Code    72  os_q.o(i.OS_QInit)
    OS_Sched                                 0x08005765   Thumb Code    88  os_core.o(i.OS_Sched)
    OS_TCBInit                               0x08005805   Thumb Code   278  os_core.o(i.OS_TCBInit)
    OS_TaskIdle                              0x08005939   Thumb Code    34  os_core.o(i.OS_TaskIdle)
    OS_TaskReturn                            0x08005961   Thumb Code    18  os_task.o(i.OS_TaskReturn)
    OS_TaskStat                              0x08005979   Thumb Code   116  os_core.o(i.OS_TaskStat)
    OS_TaskStatStkChk                        0x08005a01   Thumb Code    54  os_core.o(i.OS_TaskStatStkChk)
    OS_TaskStkClr                            0x08005a3d   Thumb Code    26  os_task.o(i.OS_TaskStkClr)
    OTG_FS_IRQHandler                        0x08005a59   Thumb Code    10  stm32f4xx_it.o(i.OTG_FS_IRQHandler)
    ProductTest_main                         0x08005a69   Thumb Code   170  producttest.o(i.ProductTest_main)
    RCC_AHB1PeriphClockCmd                   0x08005b65   Thumb Code    26  stm32f4xx_rcc.o(i.RCC_AHB1PeriphClockCmd)
    RCC_AHB2PeriphClockCmd                   0x08005b85   Thumb Code    26  stm32f4xx_rcc.o(i.RCC_AHB2PeriphClockCmd)
    RCC_APB1PeriphClockCmd                   0x08005ba5   Thumb Code    26  stm32f4xx_rcc.o(i.RCC_APB1PeriphClockCmd)
    RCC_APB1PeriphResetCmd                   0x08005bc5   Thumb Code    26  stm32f4xx_rcc.o(i.RCC_APB1PeriphResetCmd)
    RCC_APB2PeriphClockCmd                   0x08005be5   Thumb Code    26  stm32f4xx_rcc.o(i.RCC_APB2PeriphClockCmd)
    RCC_APB2PeriphResetCmd                   0x08005c05   Thumb Code    26  stm32f4xx_rcc.o(i.RCC_APB2PeriphResetCmd)
    RCC_GetClocksFreq                        0x08005c25   Thumb Code   214  stm32f4xx_rcc.o(i.RCC_GetClocksFreq)
    SD_DisSelect                             0x08005d95   Thumb Code    18  sd.o(i.SD_DisSelect)
    SD_GetCSD                                0x08005dad   Thumb Code    42  sd.o(i.SD_GetCSD)
    SD_GetResponse                           0x08005dd7   Thumb Code    38  sd.o(i.SD_GetResponse)
    SD_GetSectorCount                        0x08005dfd   Thumb Code   118  sd.o(i.SD_GetSectorCount)
    SD_Initialize                            0x08005e75   Thumb Code   390  sd.o(i.SD_Initialize)
    SD_ReadDisk                              0x08006001   Thumb Code   112  sd.o(i.SD_ReadDisk)
    SD_RecvData                              0x08006075   Thumb Code    56  sd.o(i.SD_RecvData)
    SD_SPI_ReadWriteByte                     0x080060ad   Thumb Code    12  sd.o(i.SD_SPI_ReadWriteByte)
    SD_SPI_SpeedHigh                         0x080060b9   Thumb Code    10  sd.o(i.SD_SPI_SpeedHigh)
    SD_SPI_SpeedLow                          0x080060c3   Thumb Code    10  sd.o(i.SD_SPI_SpeedLow)
    SD_Select                                0x080060cd   Thumb Code    28  sd.o(i.SD_Select)
    SD_SendBlock                             0x080060ed   Thumb Code    82  sd.o(i.SD_SendBlock)
    SD_SendCmd                               0x0800613f   Thumb Code   120  sd.o(i.SD_SendCmd)
    SD_WaitReady                             0x080061b7   Thumb Code    34  sd.o(i.SD_WaitReady)
    SD_WriteDisk                             0x080061d9   Thumb Code   140  sd.o(i.SD_WriteDisk)
    SPI1_Init                                0x08006269   Thumb Code   170  sd.o(i.SPI1_Init)
    SPI1_ReadWriteByte                       0x0800631d   Thumb Code    78  sd.o(i.SPI1_ReadWriteByte)
    SPI1_SetSpeed                            0x08006371   Thumb Code    36  sd.o(i.SPI1_SetSpeed)
    SPI3_IRQHandler                          0x08006399   Thumb Code    50  codec.o(i.SPI3_IRQHandler)
    SPI_Cmd                                  0x080063d5   Thumb Code    24  stm32f4xx_spi.o(i.SPI_Cmd)
    SPI_I2S_DMACmd                           0x080063ed   Thumb Code    18  stm32f4xx_spi.o(i.SPI_I2S_DMACmd)
    SPI_I2S_DeInit                           0x08006401   Thumb Code    76  stm32f4xx_spi.o(i.SPI_I2S_DeInit)
    SPI_I2S_GetFlagStatus                    0x08006459   Thumb Code    18  stm32f4xx_spi.o(i.SPI_I2S_GetFlagStatus)
    SPI_I2S_ITConfig                         0x0800646b   Thumb Code    32  stm32f4xx_spi.o(i.SPI_I2S_ITConfig)
    SPI_I2S_ReceiveData                      0x0800648b   Thumb Code     6  stm32f4xx_spi.o(i.SPI_I2S_ReceiveData)
    SPI_I2S_SendData                         0x08006491   Thumb Code     4  stm32f4xx_spi.o(i.SPI_I2S_SendData)
    SPI_Init                                 0x08006495   Thumb Code    60  stm32f4xx_spi.o(i.SPI_Init)
    SVC_Handler                              0x080064d1   Thumb Code     2  stm32f4xx_it.o(i.SVC_Handler)
    Show_Str                                 0x080065f9   Thumb Code   264  lcd.o(i.Show_Str)
    SysTick_CLKSourceConfig                  0x08006705   Thumb Code    40  misc.o(i.SysTick_CLKSourceConfig)
    SysTick_Handler                          0x0800672d   Thumb Code    16  delay.o(i.SysTick_Handler)
    SystemInit                               0x0800673d   Thumb Code    74  system_stm32f4xx.o(i.SystemInit)
    TIM2_IRQHandler                          0x08006799   Thumb Code     8  stm32f4xx_it.o(i.TIM2_IRQHandler)
    TIM4_IRQHandler                          0x080067a1   Thumb Code    48  stm32f4xx_it.o(i.TIM4_IRQHandler)
    TIM_ARRPreloadConfig                     0x080067dd   Thumb Code    24  stm32f4xx_tim.o(i.TIM_ARRPreloadConfig)
    TIM_ClearITPendingBit                    0x080067f5   Thumb Code     6  stm32f4xx_tim.o(i.TIM_ClearITPendingBit)
    TIM_Cmd                                  0x080067fb   Thumb Code    24  stm32f4xx_tim.o(i.TIM_Cmd)
    TIM_GetCapture1                          0x08006813   Thumb Code     6  stm32f4xx_tim.o(i.TIM_GetCapture1)
    TIM_GetITStatus                          0x08006819   Thumb Code    34  stm32f4xx_tim.o(i.TIM_GetITStatus)
    TIM_ITConfig                             0x0800683b   Thumb Code    18  stm32f4xx_tim.o(i.TIM_ITConfig)
    TIM_SetCompare1                          0x0800684d   Thumb Code     4  stm32f4xx_tim.o(i.TIM_SetCompare1)
    TIM_TimeBaseInit                         0x08006851   Thumb Code   104  stm32f4xx_tim.o(i.TIM_TimeBaseInit)
    USART3_IRQHandler                        0x080068d5   Thumb Code   162  usart.o(i.USART3_IRQHandler)
    USART_ClearFlag                          0x0800698d   Thumb Code    18  stm32f4xx_usart.o(i.USART_ClearFlag)
    USART_Cmd                                0x0800699f   Thumb Code    24  stm32f4xx_usart.o(i.USART_Cmd)
    USART_GetITStatus                        0x080069b7   Thumb Code    84  stm32f4xx_usart.o(i.USART_GetITStatus)
    USART_ITConfig                           0x08006a0b   Thumb Code    74  stm32f4xx_usart.o(i.USART_ITConfig)
    USART_Init                               0x08006a55   Thumb Code   204  stm32f4xx_usart.o(i.USART_Init)
    USART_ReceiveData                        0x08006b29   Thumb Code    10  stm32f4xx_usart.o(i.USART_ReceiveData)
    USBH_Alloc_Channel                       0x08006b33   Thumb Code    38  usbh_hcs.o(i.USBH_Alloc_Channel)
    USBH_BulkReceiveData                     0x08006b59   Thumb Code    96  usbh_ioreq.o(i.USBH_BulkReceiveData)
    USBH_BulkSendData                        0x08006bb9   Thumb Code    94  usbh_ioreq.o(i.USBH_BulkSendData)
    USBH_ClrFeature                          0x08006c17   Thumb Code    76  usbh_stdreq.o(i.USBH_ClrFeature)
    USBH_Connect                             0x08006c63   Thumb Code    20  usbh_core.o(i.USBH_Connect)
    USBH_CtlReceiveData                      0x08006c77   Thumb Code    70  usbh_ioreq.o(i.USBH_CtlReceiveData)
    USBH_CtlReq                              0x08006cbd   Thumb Code   112  usbh_ioreq.o(i.USBH_CtlReq)
    USBH_CtlSendData                         0x08006d2d   Thumb Code   110  usbh_ioreq.o(i.USBH_CtlSendData)
    USBH_CtlSendSetup                        0x08006d9b   Thumb Code    66  usbh_ioreq.o(i.USBH_CtlSendSetup)
    USBH_DeAllocate_AllChannel               0x08006ddd   Thumb Code    28  usbh_hcs.o(i.USBH_DeAllocate_AllChannel)
    USBH_DeInit                              0x08006df9   Thumb Code    58  usbh_core.o(i.USBH_DeInit)
    USBH_Disconnect                          0x08006e33   Thumb Code    20  usbh_core.o(i.USBH_Disconnect)
    USBH_ErrorHandle                         0x08006e47   Thumb Code    46  usbh_core.o(i.USBH_ErrorHandle)
    USBH_Free_Channel                        0x08006e75   Thumb Code    30  usbh_hcs.o(i.USBH_Free_Channel)
    USBH_GetDescriptor                       0x08006e93   Thumb Code    68  usbh_stdreq.o(i.USBH_GetDescriptor)
    USBH_Get_CfgDesc                         0x08006f11   Thumb Code    64  usbh_stdreq.o(i.USBH_Get_CfgDesc)
    USBH_Get_DevDesc                         0x08006f51   Thumb Code    56  usbh_stdreq.o(i.USBH_Get_DevDesc)
    USBH_Get_StringDesc                      0x08006f89   Thumb Code    60  usbh_stdreq.o(i.USBH_Get_StringDesc)
    USBH_HandleControl                       0x08006fc5   Thumb Code   546  usbh_core.o(i.USBH_HandleControl)
    USBH_Init                                0x080073c5   Thumb Code    88  usbh_core.o(i.USBH_Init)
    USBH_MSC_BOT_Abort                       0x08007445   Thumb Code    86  usbh_msc_bot.o(i.USBH_MSC_BOT_Abort)
    USBH_MSC_DecodeCSW                       0x080074b9   Thumb Code   108  usbh_msc_bot.o(i.USBH_MSC_DecodeCSW)
    USBH_MSC_ErrorHandle                     0x08007539   Thumb Code    58  usbh_msc_core.o(i.USBH_MSC_ErrorHandle)
    USBH_MSC_HandleBOTXfer                   0x08007751   Thumb Code   730  usbh_msc_bot.o(i.USBH_MSC_HandleBOTXfer)
    USBH_MSC_Init                            0x08007a4d   Thumb Code    44  usbh_msc_bot.o(i.USBH_MSC_Init)
    USBH_MSC_ModeSense6                      0x08007bad   Thumb Code   192  usbh_msc_scsi.o(i.USBH_MSC_ModeSense6)
    USBH_MSC_Read10                          0x08007c7d   Thumb Code   242  usbh_msc_scsi.o(i.USBH_MSC_Read10)
    USBH_MSC_ReadCapacity10                  0x08007d7d   Thumb Code   202  usbh_msc_scsi.o(i.USBH_MSC_ReadCapacity10)
    USBH_MSC_RequestSense                    0x08007e59   Thumb Code   208  usbh_msc_scsi.o(i.USBH_MSC_RequestSense)
    USBH_MSC_TestUnitReady                   0x08007f39   Thumb Code   162  usbh_msc_scsi.o(i.USBH_MSC_TestUnitReady)
    USBH_MSC_Write10                         0x08007fe9   Thumb Code   218  usbh_msc_scsi.o(i.USBH_MSC_Write10)
    USBH_Modify_Channel                      0x080080cd   Thumb Code   100  usbh_hcs.o(i.USBH_Modify_Channel)
    USBH_OTG_ISR_Handler                     0x08008131   Thumb Code   168  usb_hcd_int.o(i.USBH_OTG_ISR_Handler)
    USBH_Open_Channel                        0x080081d9   Thumb Code   154  usbh_hcs.o(i.USBH_Open_Channel)
    USBH_Process                             0x08008421   Thumb Code   430  usbh_core.o(i.USBH_Process)
    USBH_SetAddress                          0x080085cf   Thumb Code    38  usbh_stdreq.o(i.USBH_SetAddress)
    USBH_SetCfg                              0x080085f5   Thumb Code    38  usbh_stdreq.o(i.USBH_SetCfg)
    USBH_USR_Configuration_DescAvailable     0x08008633   Thumb Code     2  usbh_usr.o(i.USBH_USR_Configuration_DescAvailable)
    USBH_USR_DeInit                          0x08008635   Thumb Code     8  usbh_usr.o(i.USBH_USR_DeInit)
    USBH_USR_DeviceAddressAssigned           0x08008641   Thumb Code     2  usbh_usr.o(i.USBH_USR_DeviceAddressAssigned)
    USBH_USR_DeviceAttached                  0x08008645   Thumb Code    26  usbh_usr.o(i.USBH_USR_DeviceAttached)
    USBH_USR_DeviceDisconnected              0x0800866d   Thumb Code    62  usbh_usr.o(i.USBH_USR_DeviceDisconnected)
    USBH_USR_DeviceNotSupported              0x080086c1   Thumb Code     2  usbh_usr.o(i.USBH_USR_DeviceNotSupported)
    USBH_USR_DeviceSpeedDetected             0x080086c3   Thumb Code     2  usbh_usr.o(i.USBH_USR_DeviceSpeedDetected)
    USBH_USR_Device_DescAvailable            0x080086c5   Thumb Code     2  usbh_usr.o(i.USBH_USR_Device_DescAvailable)
    USBH_USR_EnumerationDone                 0x080086c7   Thumb Code    16  usbh_usr.o(i.USBH_USR_EnumerationDone)
    USBH_USR_Init                            0x080086d7   Thumb Code     2  usbh_usr.o(i.USBH_USR_Init)
    USBH_USR_MSC_Application                 0x080086d9   Thumb Code    86  usbh_usr.o(i.USBH_USR_MSC_Application)
    USBH_USR_Manufacturer_String             0x0800874d   Thumb Code     2  usbh_usr.o(i.USBH_USR_Manufacturer_String)
    USBH_USR_OverCurrentDetected             0x0800874f   Thumb Code     2  usbh_usr.o(i.USBH_USR_OverCurrentDetected)
    USBH_USR_Product_String                  0x08008751   Thumb Code     2  usbh_usr.o(i.USBH_USR_Product_String)
    USBH_USR_ResetDevice                     0x08008753   Thumb Code     2  usbh_usr.o(i.USBH_USR_ResetDevice)
    USBH_USR_SerialNum_String                0x08008755   Thumb Code     2  usbh_usr.o(i.USBH_USR_SerialNum_String)
    USBH_USR_UnrecoveredError                0x08008757   Thumb Code     2  usbh_usr.o(i.USBH_USR_UnrecoveredError)
    USBH_USR_UserInput                       0x08008759   Thumb Code     4  usbh_usr.o(i.USBH_USR_UserInput)
    USB_OTG_BSP_ConfigVBUS                   0x0800875d   Thumb Code    62  usb_bsp.o(i.USB_OTG_BSP_ConfigVBUS)
    USB_OTG_BSP_DriveVBUS                    0x080087a1   Thumb Code    28  usb_bsp.o(i.USB_OTG_BSP_DriveVBUS)
    USB_OTG_BSP_EnableInterrupt              0x080087c1   Thumb Code    70  usb_bsp.o(i.USB_OTG_BSP_EnableInterrupt)
    USB_OTG_BSP_Init                         0x08008809   Thumb Code   140  usb_bsp.o(i.USB_OTG_BSP_Init)
    USB_OTG_BSP_TimerIRQ                     0x080088d5   Thumb Code    50  usb_bsp.o(i.USB_OTG_BSP_TimerIRQ)
    USB_OTG_BSP_mDelay                       0x0800890d   Thumb Code    14  usb_bsp.o(i.USB_OTG_BSP_mDelay)
    USB_OTG_BSP_uDelay                       0x0800891b   Thumb Code    14  usb_bsp.o(i.USB_OTG_BSP_uDelay)
    USB_OTG_CoreInit                         0x08008929   Thumb Code   462  usb_core.o(i.USB_OTG_CoreInit)
    USB_OTG_CoreInitHost                     0x08008af7   Thumb Code   194  usb_core.o(i.USB_OTG_CoreInitHost)
    USB_OTG_DisableGlobalInt                 0x08008c29   Thumb Code    34  usb_core.o(i.USB_OTG_DisableGlobalInt)
    USB_OTG_DriveVbus                        0x08008c4b   Thumb Code    92  usb_core.o(i.USB_OTG_DriveVbus)
    USB_OTG_EnableGlobalInt                  0x08008cd7   Thumb Code    34  usb_core.o(i.USB_OTG_EnableGlobalInt)
    USB_OTG_EnableHostInt                    0x08008cf9   Thumb Code   116  usb_core.o(i.USB_OTG_EnableHostInt)
    USB_OTG_FlushRxFifo                      0x08008d6d   Thumb Code    70  usb_core.o(i.USB_OTG_FlushRxFifo)
    USB_OTG_FlushTxFifo                      0x08008db9   Thumb Code    80  usb_core.o(i.USB_OTG_FlushTxFifo)
    USB_OTG_GetMode                          0x08008e0d   Thumb Code    12  usb_core.o(i.USB_OTG_GetMode)
    USB_OTG_HC_DoPing                        0x08008e19   Thumb Code    90  usb_core.o(i.USB_OTG_HC_DoPing)
    USB_OTG_HC_Halt                          0x08008e73   Thumb Code   126  usb_core.o(i.USB_OTG_HC_Halt)
    USB_OTG_HC_Init                          0x08008ef1   Thumb Code   568  usb_core.o(i.USB_OTG_HC_Init)
    USB_OTG_HC_StartXfer                     0x08009129   Thumb Code   502  usb_core.o(i.USB_OTG_HC_StartXfer)
    USB_OTG_InitFSLSPClkSel                  0x0800931f   Thumb Code    24  usb_core.o(i.USB_OTG_InitFSLSPClkSel)
    USB_OTG_IsEvenFrame                      0x08009337   Thumb Code    16  usb_core.o(i.USB_OTG_IsEvenFrame)
    USB_OTG_IsHostMode                       0x08009347   Thumb Code    20  usb_core.o(i.USB_OTG_IsHostMode)
    USB_OTG_ReadCoreItr                      0x0800935b   Thumb Code    16  usb_core.o(i.USB_OTG_ReadCoreItr)
    USB_OTG_ReadHPRT0                        0x0800936b   Thumb Code    48  usb_core.o(i.USB_OTG_ReadHPRT0)
    USB_OTG_ReadHostAllChannels_intr         0x0800939b   Thumb Code     8  usb_core.o(i.USB_OTG_ReadHostAllChannels_intr)
    USB_OTG_ReadPacket                       0x080093a3   Thumb Code    40  usb_core.o(i.USB_OTG_ReadPacket)
    USB_OTG_ResetPort                        0x080093cb   Thumb Code    64  usb_core.o(i.USB_OTG_ResetPort)
    USB_OTG_SelectCore                       0x0800940d   Thumb Code   204  usb_core.o(i.USB_OTG_SelectCore)
    USB_OTG_SetCurrentMode                   0x080094dd   Thumb Code    78  usb_core.o(i.USB_OTG_SetCurrentMode)
    USB_OTG_WritePacket                      0x0800a297   Thumb Code    64  usb_core.o(i.USB_OTG_WritePacket)
    UsageFault_Handler                       0x0800a73d   Thumb Code     4  stm32f4xx_it.o(i.UsageFault_Handler)
    __0printf$bare                           0x0800a895   Thumb Code     8  printfb.o(i.__0printf$bare)
    __1printf$bare                           0x0800a895   Thumb Code     0  printfb.o(i.__0printf$bare)
    __2printf                                0x0800a895   Thumb Code     0  printfb.o(i.__0printf$bare)
    __scatterload_copy                       0x0800a8a5   Thumb Code    14  handlers.o(i.__scatterload_copy)
    __scatterload_null                       0x0800a8b3   Thumb Code     2  handlers.o(i.__scatterload_null)
    __scatterload_zeroinit                   0x0800a8b5   Thumb Code    14  handlers.o(i.__scatterload_zeroinit)
    _draw_circle_8                           0x0800a8c3   Thumb Code   132  lcd.o(i._draw_circle_8)
    chk_mounted                              0x0800aa0d   Thumb Code   776  ff.o(i.chk_mounted)
    clust2sect                               0x0800ad25   Thumb Code    26  ff.o(i.clust2sect)
    delay_init                               0x0800b0f1   Thumb Code    76  delay.o(i.delay_init)
    delay_ms                                 0x0800b145   Thumb Code    68  delay.o(i.delay_ms)
    delay_us                                 0x0800b195   Thumb Code    86  delay.o(i.delay_us)
    dir_seek                                 0x0800b65b   Thumb Code   220  ff.o(i.dir_seek)
    disk_initialize                          0x0800b739   Thumb Code    74  diskio.o(i.disk_initialize)
    disk_ioctl                               0x0800b78d   Thumb Code   178  diskio.o(i.disk_ioctl)
    disk_read                                0x0800b84d   Thumb Code   176  diskio.o(i.disk_read)
    disk_status                              0x0800b909   Thumb Code    32  diskio.o(i.disk_status)
    disk_write                               0x0800b92d   Thumb Code   170  diskio.o(i.disk_write)
    display_files_list                       0x0800b9e5   Thumb Code   396  main.o(i.display_files_list)
    display_scrollbar                        0x0800bb85   Thumb Code    66  main.o(i.display_scrollbar)
    display_time                             0x0800bbc9   Thumb Code   150  main.o(i.display_time)
    display_ui_end                           0x0800bc6d   Thumb Code   186  main.o(i.display_ui_end)
    display_ui_start                         0x0800bdd1   Thumb Code   246  main.o(i.display_ui_start)
    exf_getfree                              0x0800bf0d   Thumb Code   102  exfuns.o(i.exf_getfree)
    f_getfree                                0x0800bf73   Thumb Code   278  ff.o(i.f_getfree)
    f_mount                                  0x0800c089   Thumb Code    38  ff.o(i.f_mount)
    f_open                                   0x0800c0b5   Thumb Code   408  ff.o(i.f_open)
    f_opendir                                0x0800c24d   Thumb Code   112  ff.o(i.f_opendir)
    f_read                                   0x0800c2bd   Thumb Code   508  ff.o(i.f_read)
    f_readdir                                0x0800c4b9   Thumb Code   100  ff.o(i.f_readdir)
    ff_convert                               0x0800c51d   Thumb Code    10  mycc936.o(i.ff_convert)
    ff_wtoupper                              0x0800c529   Thumb Code    46  mycc936.o(i.ff_wtoupper)
    fputc                                    0x0800c67d   Thumb Code    24  usart.o(i.fputc)
    free                                     0x0800c699   Thumb Code    76  malloc.o(i.free)
    gen_numname                              0x0800c6e9   Thumb Code   166  ff.o(i.gen_numname)
    get_TF_free                              0x0800c791   Thumb Code   116  sd.o(i.get_TF_free)
    get_USB_free                             0x0800c841   Thumb Code   116  sd.o(i.get_USB_free)
    get_fat                                  0x0800c8f1   Thumb Code   342  ff.o(i.get_fat)
    get_fattime                              0x0800ca47   Thumb Code     4  fattime.o(i.get_fattime)
    get_file_curindex                        0x0800ca4d   Thumb Code     6  mp3play.o(i.get_file_curindex)
    gui_circle                               0x0800cb91   Thumb Code   154  lcd.o(i.gui_circle)
    key_test                                 0x0800cefd   Thumb Code   510  producttest.o(i.key_test)
    lcd_test                                 0x0800d10d   Thumb Code   812  producttest.o(i.lcd_test)
    led_task                                 0x0800d455   Thumb Code    58  main.o(i.led_task)
    led_test                                 0x0800d49d   Thumb Code   792  producttest.o(i.led_test)
    list_ctrl                                0x0800d7d1   Thumb Code   200  main.o(i.list_ctrl)
    main                                     0x0800d8a5   Thumb Code   258  main.o(i.main)
    malloc                                   0x0800d9fd   Thumb Code    92  malloc.o(i.malloc)
    music_ctrl                               0x0800db31   Thumb Code   284  mp3play.o(i.music_ctrl)
    mypow                                    0x0800dc61   Thumb Code    22  lcd.o(i.mypow)
    put_fat                                  0x0800dced   Thumb Code   398  ff.o(i.put_fat)
    reset_time                               0x0800dee5   Thumb Code    46  main.o(i.reset_time)
    start_task                               0x0800df1d   Thumb Code    86  main.o(i.start_task)
    test_task                                0x0800dfb5   Thumb Code    48  main.o(i.test_task)
    tf_task                                  0x0800dfe5   Thumb Code   120  main.o(i.tf_task)
    uart_init                                0x0800e071   Thumb Code   172  usart.o(i.uart_init)
    ui_task                                  0x0800e125   Thumb Code   156  main.o(i.ui_task)
    usart_ctrl_music                         0x0800e20d   Thumb Code   326  usart.o(i.usart_ctrl_music)
    usart_test                               0x0800e3d5   Thumb Code   234  producttest.o(i.usart_test)
    usb_task                                 0x0800e5a1   Thumb Code    40  main.o(i.usb_task)
    xmp3_AllocateBuffers                     0x0800e609   Thumb Code   116  buffers.o(i.xmp3_AllocateBuffers)
    xmp3_CalcBitsUsed                        0x0800e69d   Thumb Code    18  bitstream.o(i.xmp3_CalcBitsUsed)
    xmp3_CheckPadBit                         0x0800e6af   Thumb Code    28  bitstream.o(i.xmp3_CheckPadBit)
    xmp3_DecodeHuffman                       0x0800e6cb   Thumb Code   538  huffman.o(i.xmp3_DecodeHuffman)
    xmp3_DequantChannel                      0x0800e8e5   Thumb Code   626  dqchan.o(i.xmp3_DequantChannel)
    xmp3_Dequantize                          0x0800eb5d   Thumb Code   640  dequant.o(i.xmp3_Dequantize)
    xmp3_FDCT32                              0x0800ede1   Thumb Code  3372  dct32.o(i.xmp3_FDCT32)
    xmp3_GetBits                             0x0800fb0d   Thumb Code    80  bitstream.o(i.xmp3_GetBits)
    xmp3_IMDCT                               0x0800fb5d   Thumb Code   506  imdct.o(i.xmp3_IMDCT)
    xmp3_IntensityProcMPEG1                  0x0800fd59   Thumb Code   744  stproc.o(i.xmp3_IntensityProcMPEG1)
    xmp3_IntensityProcMPEG2                  0x08010049   Thumb Code   706  stproc.o(i.xmp3_IntensityProcMPEG2)
    xmp3_MidSideProc                         0x08010315   Thumb Code   106  stproc.o(i.xmp3_MidSideProc)
    xmp3_SetBitstreamPointer                 0x0801037f   Thumb Code    12  bitstream.o(i.xmp3_SetBitstreamPointer)
    xmp3_Subband                             0x0801038d   Thumb Code   272  subband.o(i.xmp3_Subband)
    xmp3_UnpackFrameHeader                   0x080104a1   Thumb Code   476  bitstream.o(i.xmp3_UnpackFrameHeader)
    xmp3_UnpackScaleFactors                  0x08010695   Thumb Code   296  scalfact.o(i.xmp3_UnpackScaleFactors)
    xmp3_UnpackSideInfo                      0x080107bd   Thumb Code   556  bitstream.o(i.xmp3_UnpackSideInfo)
    gImage_pause                             0x080109e8   Data        1152  main.o(.constdata)
    gImage_play                              0x08010e68   Data        1152  main.o(.constdata)
    gImage_last                              0x080112e8   Data        1152  main.o(.constdata)
    gImage_next                              0x08011768   Data        1152  main.o(.constdata)
    asc2_1206                                0x08012006   Data        1140  lcd.o(.constdata)
    asc2_1608                                0x0801247a   Data        1520  lcd.o(.constdata)
    tfont16                                  0x08012a6a   Data       128282  lcd.o(.constdata)
    tfont24                                  0x08031f84   Data         962  lcd.o(.constdata)
    tfont32                                  0x08032346   Data         780  lcd.o(.constdata)
    xmp3_huffTable                           0x08032964   Data        8484  hufftabs.o(.constdata)
    xmp3_huffTabOffset                       0x08034a88   Data         128  hufftabs.o(.constdata)
    xmp3_huffTabLookup                       0x08034b08   Data         256  hufftabs.o(.constdata)
    xmp3_quadTable                           0x08034c08   Data          80  hufftabs.o(.constdata)
    xmp3_quadTabOffset                       0x08034c58   Data           8  hufftabs.o(.constdata)
    xmp3_quadTabMaxBits                      0x08034c60   Data           8  hufftabs.o(.constdata)
    xmp3_samplerateTab                       0x08034ce0   Data          36  mp3tabs.o(.constdata)
    xmp3_bitrateTab                          0x08034d04   Data         270  mp3tabs.o(.constdata)
    xmp3_samplesPerFrameTab                  0x08034e12   Data          18  mp3tabs.o(.constdata)
    xmp3_bitsPerSlotTab                      0x08034e24   Data           6  mp3tabs.o(.constdata)
    xmp3_sideBytesTab                        0x08034e2a   Data          12  mp3tabs.o(.constdata)
    xmp3_slotTab                             0x08034e36   Data         270  mp3tabs.o(.constdata)
    xmp3_sfBandTable                         0x08034f44   Data         666  mp3tabs.o(.constdata)
    xmp3_imdctWin                            0x08035248   Data         576  trigtabs.o(.constdata)
    xmp3_ISFMpeg1                            0x08035488   Data          56  trigtabs.o(.constdata)
    xmp3_ISFMpeg2                            0x080354c0   Data         256  trigtabs.o(.constdata)
    xmp3_ISFIIP                              0x080355c0   Data          16  trigtabs.o(.constdata)
    xmp3_uniqueIDTab                         0x080355d0   Data           8  trigtabs.o(.constdata)
    xmp3_csa                                 0x080355d8   Data          64  trigtabs.o(.constdata)
    xmp3_coef32                              0x08035618   Data         124  trigtabs.o(.constdata)
    xmp3_polyCoef                            0x08035694   Data        1056  trigtabs.o(.constdata)
    OSUnMapTbl                               0x08035ab4   Data         256  os_core.o(.constdata)
    Region$$Table$$Base                      0x08035bb4   Number         0  anon$$obj.o(Region$$Table)
    Region$$Table$$Limit                     0x08035bf4   Number         0  anon$$obj.o(Region$$Table)
    mount_flage                              0x10000000   Data           1  main.o(.data)
    music_status                             0x10000001   Data           1  main.o(.data)
    cur_min                                  0x10000002   Data           1  main.o(.data)
    cur_sec                                  0x10000003   Data           1  main.o(.data)
    pause                                    0x10000004   Data           1  main.o(.data)
    RepeatState                              0x10000005   Data           1  main.o(.data)
    SystemCoreClock                          0x10000008   Data           4  system_stm32f4xx.o(.data)
    AHBPrescTable                            0x1000000c   Data          16  system_stm32f4xx.o(.data)
    Command_index                            0x1000001c   Data           1  usbh_usr.o(.data)
    USR_Callbacks                            0x10000020   Data          72  usbh_usr.o(.data)
    joystick_use                             0x10000068   Data           1  usbh_usr.o(.data)
    lcdLineNo                                0x10000069   Data           1  usbh_usr.o(.data)
    key                                      0x1000006b   Data           1  producttest.o(.data)
    POINT_COLOR                              0x10000078   Data           2  lcd.o(.data)
    BACK_COLOR                               0x1000007a   Data           2  lcd.o(.data)
    DeviceCode                               0x1000007c   Data           2  lcd.o(.data)
    SD_Type                                  0x10000080   Data           1  sd.o(.data)
    total                                    0x10000084   Data           4  sd.o(.data)
    free1                                    0x10000088   Data           4  sd.o(.data)
    AudioTotalSize                           0x1000008c   Data           4  codec.o(.data)
    AudioRemSize                             0x10000090   Data           4  codec.o(.data)
    CurrentPos                               0x10000094   Data           4  codec.o(.data)
    CODECTimeout                             0x10000098   Data           4  codec.o(.data)
    OutputDev                                0x1000009c   Data           1  codec.o(.data)
    CurrAudioInterface                       0x100000a0   Data           4  codec.o(.data)
    AUDIO_MAL_DMA_CLOCK                      0x100000a4   Data           4  codec.o(.data)
    AUDIO_MAL_DMA_STREAM                     0x100000a8   Data           4  codec.o(.data)
    AUDIO_MAL_DMA_DREG                       0x100000ac   Data           4  codec.o(.data)
    AUDIO_MAL_DMA_CHANNEL                    0x100000b0   Data           4  codec.o(.data)
    AUDIO_MAL_DMA_IRQ                        0x100000b4   Data           4  codec.o(.data)
    AUDIO_MAL_DMA_FLAG_TC                    0x100000b8   Data           4  codec.o(.data)
    AUDIO_MAL_DMA_FLAG_HT                    0x100000bc   Data           4  codec.o(.data)
    AUDIO_MAL_DMA_FLAG_FE                    0x100000c0   Data           4  codec.o(.data)
    AUDIO_MAL_DMA_FLAG_TE                    0x100000c4   Data           4  codec.o(.data)
    AUDIO_MAL_DMA_FLAG_DME                   0x100000c8   Data           4  codec.o(.data)
    USBH_DeviceConnStatus_cb                 0x100000d0   Data          12  usbh_core.o(.data)
    MSC_Setup                                0x100000e0   Data           8  usbh_msc_core.o(.data)
    MSCErrorCount                            0x100000e8   Data           1  usbh_msc_core.o(.data)
    USBH_MSC_cb                              0x100000ec   Data          16  usbh_msc_core.o(.data)
    __microlib_freelist                      0x10000100   Data           4  mvars.o(.data)
    DMA_InitStructure                        0x10000104   Data          60  codec.o(.bss)
    AUDIO_MAL_DMA_InitStructure              0x10000140   Data          60  codec.o(.bss)
    USART_RX_BUF                             0x1000017c   Data          30  usart.o(.bss)
    USART_RX_TEMP                            0x1000019a   Data          30  usart.o(.bss)
    MSC_Machine                              0x100001b8   Data          74  usbh_msc_core.o(.bss)
    USBH_MSC_Param                           0x10000204   Data          16  usbh_msc_scsi.o(.bss)
    USBH_DataInBuffer                        0x10000214   Data         512  usbh_msc_scsi.o(.bss)
    USBH_DataOutBuffer                       0x10000414   Data         512  usbh_msc_scsi.o(.bss)
    PauseResumeStatus                        0x20000000   Data           1  stm32f4xx_it.o(.data)
    Count                                    0x20000001   Data           1  stm32f4xx_it.o(.data)
    LED_Toggle                               0x20000002   Data           1  stm32f4xx_it.o(.data)
    capture                                  0x20000004   Data           2  stm32f4xx_it.o(.data)
    CCR_Val                                  0x20000006   Data           2  stm32f4xx_it.o(.data)
    Time_Rec_Base                            0x20000008   Data           2  stm32f4xx_it.o(.data)
    HSEStartUpStatus                         0x2000000c   Data           1  usb_bsp.o(.data)
    BSP_delay                                0x20000010   Data           4  usb_bsp.o(.data)
    __stdout                                 0x20000028   Data           4  usart.o(.data)
    USART_RX_STA                             0x2000002c   Data           2  usart.o(.data)
    buffer_switch                            0x20000030   Data           1  mp3play.o(.data)
    hMP3Decoder                              0x20000034   Data           4  mp3play.o(.data)
    bytesLeft                                0x20000038   Data           4  mp3play.o(.data)
    readPtr                                  0x2000003c   Data           4  mp3play.o(.data)
    offset                                   0x20000040   Data           4  mp3play.o(.data)
    Decbuf                                   0x20000044   Data           4  mp3play.o(.data)
    init                                     0x20000048   Data           1  mp3play.o(.data)
    music_mode                               0x20000049   Data           1  mp3play.o(.data)
    music_curindex                           0x2000004a   Data           1  mp3play.o(.data)
    XferCplt                                 0x2000004c   Data           4  mp3play.o(.data)
    volume                                   0x20000050   Data           1  mp3play.o(.data)
    AudioPlayStart                           0x20000051   Data           1  mp3play.o(.data)
    Mp3Counter                               0x20000054   Data           4  mp3play.o(.data)
    Buffer                                   0x20000058   Data           6  mp3play.o(.data)
    Mp3DataLength                            0x20000060   Data           4  mp3play.o(.data)
    OSCtxSwCtr                               0x20000078   Data           4  os_core.o(.data)
    OSEventFreeList                          0x2000007c   Data           4  os_core.o(.data)
    OSFlagFreeList                           0x20000080   Data           4  os_core.o(.data)
    OSCPUUsage                               0x20000084   Data           1  os_core.o(.data)
    OSIdleCtrMax                             0x20000088   Data           4  os_core.o(.data)
    OSIdleCtrRun                             0x2000008c   Data           4  os_core.o(.data)
    OSStatRdy                                0x20000090   Data           1  os_core.o(.data)
    OSIntNesting                             0x20000091   Data           1  os_core.o(.data)
    OSLockNesting                            0x20000092   Data           1  os_core.o(.data)
    OSPrioCur                                0x20000093   Data           1  os_core.o(.data)
    OSPrioHighRdy                            0x20000094   Data           1  os_core.o(.data)
    OSRdyGrp                                 0x20000095   Data           1  os_core.o(.data)
    OSRdyTbl                                 0x20000096   Data           8  os_core.o(.data)
    OSRunning                                0x2000009e   Data           1  os_core.o(.data)
    OSTaskCtr                                0x2000009f   Data           1  os_core.o(.data)
    OSIdleCtr                                0x200000a0   Data           4  os_core.o(.data)
    OSTCBCur                                 0x200000a4   Data           4  os_core.o(.data)
    OSTCBFreeList                            0x200000a8   Data           4  os_core.o(.data)
    OSTCBHighRdy                             0x200000ac   Data           4  os_core.o(.data)
    OSTCBList                                0x200000b0   Data           4  os_core.o(.data)
    OSTickStepState                          0x200000b4   Data           1  os_core.o(.data)
    OSQFreeList                              0x200000b8   Data           4  os_core.o(.data)
    OSTime                                   0x200000bc   Data           4  os_core.o(.data)
    __microlib_freelist_initialised          0x200000c4   Data           4  mvars.o(.data)
    my_fs                                    0x200000c8   Data        2096  main.o(.bss)
    my_file                                  0x200008f8   Data        2084  main.o(.bss)
    USB_OTG_Core                             0x2000111c   Data        1200  main.o(.bss)
    USB_Host                                 0x200015cc   Data         132  main.o(.bss)
    START_TASK_STK                           0x20001650   Data         256  main.o(.bss)
    USB_TASK_STK                             0x20001750   Data        2048  main.o(.bss)
    TF_TASK_STK                              0x20001f50   Data        2048  main.o(.bss)
    UI_TASK_STK                              0x20002750   Data        2048  main.o(.bss)
    LED_TASK_STK                             0x20002f50   Data         256  main.o(.bss)
    TEST_TASK_STK                            0x20003050   Data        2048  main.o(.bss)
    fatfs                                    0x20003850   Data        2096  usbh_usr.o(.bss)
    files                                    0x20004080   Data        2084  usbh_usr.o(.bss)
    fileR                                    0x200048a4   Data        2084  usbh_usr.o(.bss)
    dirs                                     0x200050c8   Data          36  usbh_usr.o(.bss)
    fno                                      0x200050ec   Data          32  usbh_usr.o(.bss)
    fileinfo                                 0x2000510c   Data          32  exfuns.o(.bss)
    dir                                      0x2000512c   Data          36  exfuns.o(.bss)
    my_files                                 0x20005150   Data        2084  exfuns.o(.bss)
    lcddev                                   0x20005974   Data          14  lcd.o(.bss)
    mp3DecInfo                               0x20005984   Data        2032  buffers.o(.bss)
    sbi                                      0x20006174   Data        8708  buffers.o(.bss)
    mi                                       0x20008378   Data        6944  buffers.o(.bss)
    hi                                       0x20009e98   Data        4624  buffers.o(.bss)
    di                                       0x2000b0a8   Data         840  buffers.o(.bss)
    sfi                                      0x2000b3f0   Data         284  buffers.o(.bss)
    si                                       0x2000b50c   Data         328  buffers.o(.bss)
    fh                                       0x2000b654   Data          56  buffers.o(.bss)
    buff                                     0x2000b68c   Data          12  mp3play.o(.bss)
    mp3FrameInfo                             0x2000b698   Data          28  mp3play.o(.bss)
    readBuf                                  0x2000b6b4   Data        4000  mp3play.o(.bss)
    buffer1                                  0x2000c654   Data        4608  mp3play.o(.bss)
    buffer2                                  0x2000d854   Data        4608  mp3play.o(.bss)
    USBH_MSC_CBWData                         0x2000ea54   Data          32  usbh_msc_bot.o(.bss)
    USBH_MSC_CSWData                         0x2000ea74   Data          16  usbh_msc_bot.o(.bss)
    USBH_MSC_BOTXferParam                    0x2000ea84   Data          16  usbh_msc_bot.o(.bss)
    OSEventTbl                               0x2000ea94   Data         200  os_core.o(.bss)
    OSFlagTbl                                0x2000eb5c   Data          80  os_core.o(.bss)
    OSTaskStatStk                            0x2000ebac   Data         512  os_core.o(.bss)
    OSTaskIdleStk                            0x2000edac   Data         512  os_core.o(.bss)
    OSTCBPrioTbl                             0x2000efac   Data         256  os_core.o(.bss)
    OSTCBTbl                                 0x2000f0ac   Data        1008  os_core.o(.bss)
    OSQTbl                                   0x2000f49c   Data         120  os_core.o(.bss)
    __heap_base                              0x2000f518   Data           0  startup_stm32f4xx.o(HEAP)
    __heap_limit                             0x2000f618   Data           0  startup_stm32f4xx.o(HEAP)
    __initial_sp                             0x20010618   Data           0  startup_stm32f4xx.o(STACK)



==============================================================================

Memory Map of the image

  Image Entry point : 0x08000189

  Load Region LR_IROM1 (Base: 0x08000000, Size: 0x00035dc0, Max: 0x00100000, ABSOLUTE)

    Execution Region ER_IROM1 (Base: 0x08000000, Size: 0x00035bf4, Max: 0x00100000, ABSOLUTE)

    Base Addr    Size         Type   Attr      Idx    E Section Name        Object

    0x08000000   0x00000188   Data   RO            3    RESET               startup_stm32f4xx.o
    0x08000188   0x00000000   Code   RO         5760  * .ARM.Collect$$$$00000000  mc_w.l(entry.o)
    0x08000188   0x00000004   Code   RO         6078    .ARM.Collect$$$$00000001  mc_w.l(entry2.o)
    0x0800018c   0x00000004   Code   RO         6081    .ARM.Collect$$$$00000004  mc_w.l(entry5.o)
    0x08000190   0x00000000   Code   RO         6083    .ARM.Collect$$$$00000008  mc_w.l(entry7b.o)
    0x08000190   0x00000000   Code   RO         6085    .ARM.Collect$$$$0000000A  mc_w.l(entry8b.o)
    0x08000190   0x00000008   Code   RO         6086    .ARM.Collect$$$$0000000B  mc_w.l(entry9a.o)
    0x08000198   0x00000000   Code   RO         6088    .ARM.Collect$$$$0000000D  mc_w.l(entry10a.o)
    0x08000198   0x00000000   Code   RO         6090    .ARM.Collect$$$$0000000F  mc_w.l(entry11a.o)
    0x08000198   0x00000004   Code   RO         6079    .ARM.Collect$$$$00002712  mc_w.l(entry2.o)
    0x0800019c   0x00000024   Code   RO            4    .text               startup_stm32f4xx.o
    0x080001c0   0x00000008   Code   RO         4143    .text               asmmisc.o
    0x080001c8   0x0000080e   Code   RO         4146    .text               asmpoly_thumb2.o
    0x080009d6   0x00000002   PAD
    0x080009d8   0x000000c8   Code   RO         5671    .text               os_cpu_a.o
    0x08000aa0   0x00000024   Code   RO         5763    .text               mc_w.l(rand.o)
    0x08000ac4   0x00000040   Code   RO         5768    .text               mc_w.l(memmovea.o)
    0x08000b04   0x00000024   Code   RO         5770    .text               mc_w.l(memseta.o)
    0x08000b28   0x00000018   Code   RO         5772    .text               mc_w.l(strcat.o)
    0x08000b40   0x00000024   Code   RO         5774    .text               mc_w.l(strstr.o)
    0x08000b64   0x00000018   Code   RO         5776    .text               mc_w.l(strncpy.o)
    0x08000b7c   0x0000000e   Code   RO         5778    .text               mc_w.l(strlen.o)
    0x08000b8a   0x0000001c   Code   RO         5780    .text               mc_w.l(strcmp.o)
    0x08000ba6   0x00000012   Code   RO         5782    .text               mc_w.l(strcpy.o)
    0x08000bb8   0x0000001e   Code   RO         5784    .text               mc_w.l(strncmp.o)
    0x08000bd6   0x00000002   PAD
    0x08000bd8   0x00000024   Code   RO         6109    .text               mc_w.l(init.o)
    0x08000bfc   0x00000056   Code   RO         6127    .text               mc_w.l(__dczerorl2.o)
    0x08000c52   0x00000002   PAD
    0x08000c54   0x00000254   Code   RO         3949    i.AntiAlias         imdct.o
    0x08000ea8   0x000000e8   Code   RO         3459    i.Audio_MAL_IRQHandler  codec.o
    0x08000f90   0x000000fc   Code   RO         3460    i.Audio_MAL_Init    codec.o
    0x0800108c   0x00000050   Code   RO         3461    i.Audio_MAL_PauseResume  codec.o
    0x080010dc   0x0000006c   Code   RO         3462    i.Audio_MAL_Play    codec.o
    0x08001148   0x00000050   Code   RO         3463    i.Audio_MAL_Stop    codec.o
    0x08001198   0x0000002c   Code   RO          487    i.BSP_Delay         usb_bsp.o
    0x080011c4   0x0000006a   Code   RO          488    i.BSP_SetTime       usb_bsp.o
    0x0800122e   0x00000004   Code   RO          360    i.BusFault_Handler  stm32f4xx_it.o
    0x08001232   0x0000001c   Code   RO         3870    i.CLZ               dequant.o
    0x0800124e   0x0000001c   Code   RO         3890    i.CLZ               dqchan.o
    0x0800126a   0x00000002   PAD
    0x0800126c   0x00000044   Code   RO          557    i.COMMAND_AudioExecuteApplication  usbh_usr.o
    0x080012b0   0x0000003c   Code   RO         3310    i.CSPin_Init        sd.o
    0x080012ec   0x00000016   Code   RO         3829    i.ClearBuffer       buffers.o
    0x08001302   0x00000002   PAD
    0x08001304   0x0000006c   Code   RO         3465    i.Codec_AudioInterface_Init  codec.o
    0x08001370   0x00000050   Code   RO         3467    i.Codec_CtrlInterface_Init  codec.o
    0x080013c0   0x00000124   Code   RO         3470    i.Codec_GPIO_Init   codec.o
    0x080014e4   0x000000e8   Code   RO         3471    i.Codec_Init        codec.o
    0x080015cc   0x0000002c   Code   RO         3472    i.Codec_Mute        codec.o
    0x080015f8   0x00000044   Code   RO         3473    i.Codec_PauseResume  codec.o
    0x0800163c   0x000001c4   Code   RO         3475    i.Codec_ReadRegister  codec.o
    0x08001800   0x00000024   Code   RO         3476    i.Codec_Reset       codec.o
    0x08001824   0x00000040   Code   RO         3477    i.Codec_Stop        codec.o
    0x08001864   0x00000004   Code   RO         4152    i.Codec_TIMEOUT_UserCallback  mp3play.o
    0x08001868   0x00000048   Code   RO         3478    i.Codec_VolumeCtrl  codec.o
    0x080018b0   0x00000128   Code   RO         3479    i.Codec_WriteRegister  codec.o
    0x080019d8   0x00000028   Code   RO          795    i.DAC_Cmd           stm32f4xx_dac.o
    0x08001a00   0x00000050   Code   RO         3480    i.DAC_Config        codec.o
    0x08001a50   0x00000034   Code   RO          803    i.DAC_Init          stm32f4xx_dac.o
    0x08001a84   0x00000020   Code   RO          804    i.DAC_SetChannel1Data  stm32f4xx_dac.o
    0x08001aa4   0x00000008   Code   RO         3481    i.DMA1_Stream0_IRQHandler  codec.o
    0x08001aac   0x00000008   Code   RO         3482    i.DMA1_Stream7_IRQHandler  codec.o
    0x08001ab4   0x00000034   Code   RO          905    i.DMA_ClearFlag     stm32f4xx_dma.o
    0x08001ae8   0x00000016   Code   RO          907    i.DMA_Cmd           stm32f4xx_dma.o
    0x08001afe   0x00000002   PAD
    0x08001b00   0x00000158   Code   RO          908    i.DMA_DeInit        stm32f4xx_dma.o
    0x08001c58   0x00000014   Code   RO          912    i.DMA_GetCmdStatus  stm32f4xx_dma.o
    0x08001c6c   0x00000044   Code   RO          916    i.DMA_GetFlagStatus  stm32f4xx_dma.o
    0x08001cb0   0x0000003a   Code   RO          918    i.DMA_ITConfig      stm32f4xx_dma.o
    0x08001cea   0x00000002   PAD
    0x08001cec   0x00000058   Code   RO          919    i.DMA_Init          stm32f4xx_dma.o
    0x08001d44   0x00000002   Code   RO          361    i.DebugMon_Handler  stm32f4xx_it.o
    0x08001d46   0x00000002   PAD
    0x08001d48   0x0000038c   Code   RO         3914    i.DecodeHuffmanPairs  huffman.o
    0x080020d4   0x0000017c   Code   RO         3915    i.DecodeHuffmanQuads  huffman.o
    0x08002250   0x00000012   Code   RO         3483    i.Delay             codec.o
    0x08002262   0x00000002   PAD
    0x08002264   0x000001b4   Code   RO         3891    i.DequantBlock      dqchan.o
    0x08002418   0x00000070   Code   RO         3060    i.DrawPage          lcd.o
    0x08002488   0x00000004   Code   RO         4154    i.EVAL_AUDIO_GetSampleCallBack  mp3play.o
    0x0800248c   0x0000003a   Code   RO         3485    i.EVAL_AUDIO_Init   codec.o
    0x080024c6   0x0000001c   Code   RO         3487    i.EVAL_AUDIO_PauseResume  codec.o
    0x080024e2   0x00000002   PAD
    0x080024e4   0x000000dc   Code   RO         3489    i.EVAL_AUDIO_SetAudioInterface  codec.o
    0x080025c0   0x00000028   Code   RO         3490    i.EVAL_AUDIO_Stop   codec.o
    0x080025e8   0x0000000c   Code   RO         4155    i.EVAL_AUDIO_TransferComplete_CallBack  mp3play.o
    0x080025f4   0x00000020   Code   RO         3491    i.EVAL_AUDIO_VolumeCtl  codec.o
    0x08002614   0x00000054   Code   RO          362    i.EXTI0_IRQHandler  stm32f4xx_it.o
    0x08002668   0x00000002   Code   RO          363    i.EXTI1_IRQHandler  stm32f4xx_it.o
    0x0800266a   0x00000002   PAD
    0x0800266c   0x0000000c   Code   RO         1030    i.EXTI_ClearITPendingBit  stm32f4xx_exti.o
    0x08002678   0x00000028   Code   RO         1034    i.EXTI_GetITStatus  stm32f4xx_exti.o
    0x080026a0   0x00000204   Code   RO         3950    i.FreqInvertRescale  imdct.o
    0x080028a4   0x00000090   Code   RO         1088    i.GPIO_Init         stm32f4xx_gpio.o
    0x08002934   0x00000046   Code   RO         1089    i.GPIO_PinAFConfig  stm32f4xx_gpio.o
    0x0800297a   0x00000004   Code   RO         1095    i.GPIO_ResetBits    stm32f4xx_gpio.o
    0x0800297e   0x00000004   Code   RO         1096    i.GPIO_SetBits      stm32f4xx_gpio.o
    0x08002982   0x0000000a   Code   RO         1100    i.GPIO_WriteBit     stm32f4xx_gpio.o
    0x0800298c   0x0000010c   Code   RO         3061    i.GUI_DrawFont16    lcd.o
    0x08002a98   0x00000118   Code   RO         3062    i.GUI_DrawFont24    lcd.o
    0x08002bb0   0x00000108   Code   RO         3063    i.GUI_DrawFont32    lcd.o
    0x08002cb8   0x00000018   Code   RO         3064    i.GUI_DrawPoint     lcd.o
    0x08002cd0   0x00000048   Code   RO         3066    i.Gui_StrCenter     lcd.o
    0x08002d18   0x00000060   Code   RO         3067    i.Gui_icon          lcd.o
    0x08002d78   0x0000000a   Code   RO         4451    i.HCD_GetCurrentFrame  usb_hcd.o
    0x08002d82   0x00000014   Code   RO         4452    i.HCD_GetCurrentSpeed  usb_hcd.o
    0x08002d96   0x0000000a   Code   RO         4454    i.HCD_GetURB_State  usb_hcd.o
    0x08002da0   0x0000000c   Code   RO         4455    i.HCD_GetXferCnt    usb_hcd.o
    0x08002dac   0x00000060   Code   RO         4457    i.HCD_Init          usb_hcd.o
    0x08002e0c   0x00000008   Code   RO         4458    i.HCD_IsDeviceConnected  usb_hcd.o
    0x08002e14   0x0000000e   Code   RO         4459    i.HCD_ResetPort     usb_hcd.o
    0x08002e22   0x00000020   Code   RO         4460    i.HCD_SubmitRequest  usb_hcd.o
    0x08002e42   0x00000004   Code   RO          364    i.HardFault_Handler  stm32f4xx_it.o
    0x08002e46   0x0000017c   Code   RO         3951    i.HybridTransform   imdct.o
    0x08002fc2   0x00000018   Code   RO         1182    i.I2C_AcknowledgeConfig  stm32f4xx_i2c.o
    0x08002fda   0x0000002a   Code   RO         1184    i.I2C_CheckEvent    stm32f4xx_i2c.o
    0x08003004   0x0000000c   Code   RO         1185    i.I2C_ClearFlag     stm32f4xx_i2c.o
    0x08003010   0x00000018   Code   RO         1187    i.I2C_Cmd           stm32f4xx_i2c.o
    0x08003028   0x00000060   Code   RO         1190    i.I2C_DeInit        stm32f4xx_i2c.o
    0x08003088   0x00000018   Code   RO         1194    i.I2C_GenerateSTART  stm32f4xx_i2c.o
    0x080030a0   0x00000018   Code   RO         1195    i.I2C_GenerateSTOP  stm32f4xx_i2c.o
    0x080030b8   0x0000003a   Code   RO         1196    i.I2C_GetFlagStatus  stm32f4xx_i2c.o
    0x080030f2   0x00000002   PAD
    0x080030f4   0x000000e8   Code   RO         1201    i.I2C_Init          stm32f4xx_i2c.o
    0x080031dc   0x00000008   Code   RO         1206    i.I2C_ReceiveData   stm32f4xx_i2c.o
    0x080031e4   0x00000010   Code   RO         1208    i.I2C_Send7bitAddress  stm32f4xx_i2c.o
    0x080031f4   0x00000004   Code   RO         1209    i.I2C_SendData      stm32f4xx_i2c.o
    0x080031f8   0x00000018   Code   RO         1665    i.I2S_Cmd           stm32f4xx_spi.o
    0x08003210   0x00000168   Code   RO         1667    i.I2S_Init          stm32f4xx_spi.o
    0x08003378   0x000001ec   Code   RO         3952    i.IMDCT12x3         imdct.o
    0x08003564   0x00000248   Code   RO         3953    i.IMDCT36           imdct.o
    0x080037ac   0x00000080   Code   RO         3034    i.KEY_Init          key.o
    0x0800382c   0x00000138   Code   RO         3035    i.KEY_Scan          key.o
    0x08003964   0x00000074   Code   RO         3069    i.LCD_Clear         lcd.o
    0x080039d8   0x00000024   Code   RO         3070    i.LCD_DrawFillRectangle  lcd.o
    0x080039fc   0x000000b0   Code   RO         3071    i.LCD_DrawLine      lcd.o
    0x08003aac   0x00000058   Code   RO         3072    i.LCD_DrawPoint     lcd.o
    0x08003b04   0x0000003c   Code   RO         3073    i.LCD_DrawPoint_16Bit  lcd.o
    0x08003b40   0x0000003c   Code   RO         3074    i.LCD_DrawRectangle  lcd.o
    0x08003b7c   0x000000b4   Code   RO         3075    i.LCD_Fill          lcd.o
    0x08003c30   0x00000058   Code   RO         3076    i.LCD_GPIOInit      lcd.o
    0x08003c88   0x00000244   Code   RO         3077    i.LCD_Init          lcd.o
    0x08003ecc   0x0000002c   Code   RO         3078    i.LCD_RESET         lcd.o
    0x08003ef8   0x00000038   Code   RO         3080    i.LCD_SetCursor     lcd.o
    0x08003f30   0x0000002c   Code   RO         3081    i.LCD_SetParam      lcd.o
    0x08003f5c   0x00000054   Code   RO         3082    i.LCD_SetWindows    lcd.o
    0x08003fb0   0x00000124   Code   RO         3083    i.LCD_ShowChar      lcd.o
    0x080040d4   0x000000b0   Code   RO         3084    i.LCD_ShowNum       lcd.o
    0x08004184   0x0000006c   Code   RO         3085    i.LCD_ShowString    lcd.o
    0x080041f0   0x00000028   Code   RO         3086    i.LCD_WR_DATA       lcd.o
    0x08004218   0x00000024   Code   RO         3087    i.LCD_WR_REG        lcd.o
    0x0800423c   0x00000010   Code   RO         3088    i.LCD_WriteRAM_Prepare  lcd.o
    0x0800424c   0x00000014   Code   RO         3089    i.LCD_WriteReg      lcd.o
    0x08004260   0x00000038   Code   RO         3291    i.LED_Init          led.o
    0x08004298   0x00000012   Code   RO         3090    i.Lcd_Delay         lcd.o
    0x080042aa   0x00000002   Code   RO         4006    i.MP3ClearBadFrame  mp3dec.o
    0x080042ac   0x00000324   Code   RO         4007    i.MP3Decode         mp3dec.o
    0x080045d0   0x00000064   Code   RO         4008    i.MP3FindFreeSync   mp3dec.o
    0x08004634   0x0000002c   Code   RO         4009    i.MP3FindSyncWord   mp3dec.o
    0x08004660   0x00000064   Code   RO         4011    i.MP3GetLastFrameInfo  mp3dec.o
    0x080046c4   0x0000000c   Code   RO         4013    i.MP3InitDecoder    mp3dec.o
    0x080046d0   0x00000004   Code   RO          365    i.MemManage_Handler  stm32f4xx_it.o
    0x080046d4   0x00000020   Code   RO         4156    i.Mp3PlayerInit     mp3play.o
    0x080046f4   0x0000000c   Code   RO         4157    i.Mp3PlayerPauseResume  mp3play.o
    0x08004700   0x000003b8   Code   RO         4158    i.Mp3PlayerStart    mp3play.o
    0x08004ab8   0x0000000a   Code   RO         4159    i.Mp3PlayerStop     mp3play.o
    0x08004ac2   0x00000002   PAD
    0x08004ac4   0x00000058   Code   RO         4160    i.Mp3Player_CallBack  mp3play.o
    0x08004b1c   0x0000000e   Code   RO         4161    i.Mp3playerCtrlVolume  mp3play.o
    0x08004b2a   0x00000002   Code   RO          366    i.NMI_Handler       stm32f4xx_it.o
    0x08004b2c   0x00000078   Code   RO          753    i.NVIC_Init         misc.o
    0x08004ba4   0x00000014   Code   RO          754    i.NVIC_PriorityGroupConfig  misc.o
    0x08004bb8   0x00000014   Code   RO          755    i.NVIC_SetVectorTable  misc.o
    0x08004bcc   0x0000002c   Code   RO         4994    i.OSInit            os_core.o
    0x08004bf8   0x00000002   Code   RO         5675    i.OSInitHookBegin   os_cpu_c.o
    0x08004bfa   0x00000002   Code   RO         5676    i.OSInitHookEnd     os_cpu_c.o
    0x08004bfc   0x00000024   Code   RO         4995    i.OSIntEnter        os_core.o
    0x08004c20   0x00000090   Code   RO         4996    i.OSIntExit         os_core.o
    0x08004cb0   0x00000040   Code   RO         4997    i.OSSchedLock       os_core.o
    0x08004cf0   0x00000060   Code   RO         4998    i.OSSchedUnlock     os_core.o
    0x08004d50   0x00000048   Code   RO         4999    i.OSStart           os_core.o
    0x08004d98   0x0000004c   Code   RO         5000    i.OSStatInit        os_core.o
    0x08004de4   0x00000002   Code   RO         5677    i.OSTCBInitHook     os_cpu_c.o
    0x08004de6   0x00000002   PAD
    0x08004de8   0x000000a0   Code   RO         5523    i.OSTaskCreate      os_task.o
    0x08004e88   0x000000b8   Code   RO         5524    i.OSTaskCreateExt   os_task.o
    0x08004f40   0x00000002   Code   RO         5678    i.OSTaskCreateHook  os_cpu_c.o
    0x08004f42   0x00000002   PAD
    0x08004f44   0x00000154   Code   RO         5525    i.OSTaskDel         os_task.o
    0x08005098   0x00000002   Code   RO         5679    i.OSTaskDelHook     os_cpu_c.o
    0x0800509a   0x00000002   Code   RO         5680    i.OSTaskIdleHook    os_cpu_c.o
    0x0800509c   0x00000070   Code   RO         5528    i.OSTaskNameSet     os_task.o
    0x0800510c   0x00000002   Code   RO         5681    i.OSTaskReturnHook  os_cpu_c.o
    0x0800510e   0x00000002   Code   RO         5682    i.OSTaskStatHook    os_cpu_c.o
    0x08005110   0x0000008c   Code   RO         5533    i.OSTaskStkChk      os_task.o
    0x0800519c   0x0000009c   Code   RO         5683    i.OSTaskStkInit     os_cpu_c.o
    0x08005238   0x000000a8   Code   RO         5534    i.OSTaskSuspend     os_task.o
    0x080052e0   0x00000002   Code   RO         5684    i.OSTaskSwHook      os_cpu_c.o
    0x080052e2   0x00000002   PAD
    0x080052e4   0x00000078   Code   RO         5622    i.OSTimeDly         os_time.o
    0x0800535c   0x000000ec   Code   RO         5001    i.OSTimeTick        os_core.o
    0x08005448   0x00000002   Code   RO         5685    i.OSTimeTickHook    os_cpu_c.o
    0x0800544a   0x00000002   Code   RO         5003    i.OS_Dummy          os_core.o
    0x0800544c   0x0000002a   Code   RO         5005    i.OS_EventTaskRemove  os_core.o
    0x08005476   0x00000002   PAD
    0x08005478   0x00000058   Code   RO         5189    i.OS_FlagInit       os_flag.o
    0x080054d0   0x00000024   Code   RO         5191    i.OS_FlagUnlink     os_flag.o
    0x080054f4   0x00000054   Code   RO         5008    i.OS_InitEventList  os_core.o
    0x08005548   0x00000054   Code   RO         5009    i.OS_InitMisc       os_core.o
    0x0800559c   0x00000044   Code   RO         5010    i.OS_InitRdyList    os_core.o
    0x080055e0   0x00000080   Code   RO         5011    i.OS_InitTCBList    os_core.o
    0x08005660   0x00000050   Code   RO         5012    i.OS_InitTaskIdle   os_core.o
    0x080056b0   0x00000050   Code   RO         5013    i.OS_InitTaskStat   os_core.o
    0x08005700   0x00000012   Code   RO         5014    i.OS_MemClr         os_core.o
    0x08005712   0x00000002   PAD
    0x08005714   0x00000050   Code   RO         5398    i.OS_QInit          os_q.o
    0x08005764   0x00000074   Code   RO         5016    i.OS_Sched          os_core.o
    0x080057d8   0x0000002c   Code   RO         5017    i.OS_SchedNew       os_core.o
    0x08005804   0x00000134   Code   RO         5019    i.OS_TCBInit        os_core.o
    0x08005938   0x00000028   Code   RO         5020    i.OS_TaskIdle       os_core.o
    0x08005960   0x00000018   Code   RO         5535    i.OS_TaskReturn     os_task.o
    0x08005978   0x00000088   Code   RO         5021    i.OS_TaskStat       os_core.o
    0x08005a00   0x0000003c   Code   RO         5022    i.OS_TaskStatStkChk  os_core.o
    0x08005a3c   0x0000001a   Code   RO         5536    i.OS_TaskStkClr     os_task.o
    0x08005a56   0x00000002   PAD
    0x08005a58   0x00000010   Code   RO          367    i.OTG_FS_IRQHandler  stm32f4xx_it.o
    0x08005a68   0x000000fc   Code   RO          696    i.ProductTest_main  producttest.o
    0x08005b64   0x00000020   Code   RO         1389    i.RCC_AHB1PeriphClockCmd  stm32f4xx_rcc.o
    0x08005b84   0x00000020   Code   RO         1392    i.RCC_AHB2PeriphClockCmd  stm32f4xx_rcc.o
    0x08005ba4   0x00000020   Code   RO         1398    i.RCC_APB1PeriphClockCmd  stm32f4xx_rcc.o
    0x08005bc4   0x00000020   Code   RO         1400    i.RCC_APB1PeriphResetCmd  stm32f4xx_rcc.o
    0x08005be4   0x00000020   Code   RO         1401    i.RCC_APB2PeriphClockCmd  stm32f4xx_rcc.o
    0x08005c04   0x00000020   Code   RO         1403    i.RCC_APB2PeriphResetCmd  stm32f4xx_rcc.o
    0x08005c24   0x000000e8   Code   RO         1410    i.RCC_GetClocksFreq  stm32f4xx_rcc.o
    0x08005d0c   0x00000088   Code   RO         3765    i.RefillBitstreamCache  bitstream.o
    0x08005d94   0x00000018   Code   RO         3311    i.SD_DisSelect      sd.o
    0x08005dac   0x0000002a   Code   RO         3313    i.SD_GetCSD         sd.o
    0x08005dd6   0x00000026   Code   RO         3314    i.SD_GetResponse    sd.o
    0x08005dfc   0x00000076   Code   RO         3315    i.SD_GetSectorCount  sd.o
    0x08005e72   0x00000002   PAD
    0x08005e74   0x0000018c   Code   RO         3316    i.SD_Initialize     sd.o
    0x08006000   0x00000074   Code   RO         3317    i.SD_ReadDisk       sd.o
    0x08006074   0x00000038   Code   RO         3318    i.SD_RecvData       sd.o
    0x080060ac   0x0000000c   Code   RO         3319    i.SD_SPI_ReadWriteByte  sd.o
    0x080060b8   0x0000000a   Code   RO         3320    i.SD_SPI_SpeedHigh  sd.o
    0x080060c2   0x0000000a   Code   RO         3321    i.SD_SPI_SpeedLow   sd.o
    0x080060cc   0x00000020   Code   RO         3322    i.SD_Select         sd.o
    0x080060ec   0x00000052   Code   RO         3323    i.SD_SendBlock      sd.o
    0x0800613e   0x00000078   Code   RO         3324    i.SD_SendCmd        sd.o
    0x080061b6   0x00000022   Code   RO         3325    i.SD_WaitReady      sd.o
    0x080061d8   0x00000090   Code   RO         3326    i.SD_WriteDisk      sd.o
    0x08006268   0x000000b4   Code   RO         3327    i.SPI1_Init         sd.o
    0x0800631c   0x00000054   Code   RO         3328    i.SPI1_ReadWriteByte  sd.o
    0x08006370   0x00000028   Code   RO         3329    i.SPI1_SetSpeed     sd.o
    0x08006398   0x0000003c   Code   RO         3492    i.SPI3_IRQHandler   codec.o
    0x080063d4   0x00000018   Code   RO         1671    i.SPI_Cmd           stm32f4xx_spi.o
    0x080063ec   0x00000012   Code   RO         1677    i.SPI_I2S_DMACmd    stm32f4xx_spi.o
    0x080063fe   0x00000002   PAD
    0x08006400   0x00000058   Code   RO         1678    i.SPI_I2S_DeInit    stm32f4xx_spi.o
    0x08006458   0x00000012   Code   RO         1679    i.SPI_I2S_GetFlagStatus  stm32f4xx_spi.o
    0x0800646a   0x00000020   Code   RO         1681    i.SPI_I2S_ITConfig  stm32f4xx_spi.o
    0x0800648a   0x00000006   Code   RO         1682    i.SPI_I2S_ReceiveData  stm32f4xx_spi.o
    0x08006490   0x00000004   Code   RO         1683    i.SPI_I2S_SendData  stm32f4xx_spi.o
    0x08006494   0x0000003c   Code   RO         1684    i.SPI_Init          stm32f4xx_spi.o
    0x080064d0   0x00000002   Code   RO          368    i.SVC_Handler       stm32f4xx_it.o
    0x080064d2   0x00000002   PAD
    0x080064d4   0x00000124   Code   RO          454    i.SetSysClock       system_stm32f4xx.o
    0x080065f8   0x0000010c   Code   RO         3091    i.Show_Str          lcd.o
    0x08006704   0x00000028   Code   RO          757    i.SysTick_CLKSourceConfig  misc.o
    0x0800672c   0x00000010   Code   RO         3663    i.SysTick_Handler   delay.o
    0x0800673c   0x0000005c   Code   RO          456    i.SystemInit        system_stm32f4xx.o
    0x08006798   0x00000008   Code   RO          369    i.TIM2_IRQHandler   stm32f4xx_it.o
    0x080067a0   0x0000003c   Code   RO          370    i.TIM4_IRQHandler   stm32f4xx_it.o
    0x080067dc   0x00000018   Code   RO         1875    i.TIM_ARRPreloadConfig  stm32f4xx_tim.o
    0x080067f4   0x00000006   Code   RO         1882    i.TIM_ClearITPendingBit  stm32f4xx_tim.o
    0x080067fa   0x00000018   Code   RO         1887    i.TIM_Cmd           stm32f4xx_tim.o
    0x08006812   0x00000006   Code   RO         1902    i.TIM_GetCapture1   stm32f4xx_tim.o
    0x08006818   0x00000022   Code   RO         1908    i.TIM_GetITStatus   stm32f4xx_tim.o
    0x0800683a   0x00000012   Code   RO         1912    i.TIM_ITConfig      stm32f4xx_tim.o
    0x0800684c   0x00000004   Code   RO         1949    i.TIM_SetCompare1   stm32f4xx_tim.o
    0x08006850   0x00000084   Code   RO         1959    i.TIM_TimeBaseInit  stm32f4xx_tim.o
    0x080068d4   0x000000b8   Code   RO         3715    i.USART3_IRQHandler  usart.o
    0x0800698c   0x00000012   Code   RO         2429    i.USART_ClearFlag   stm32f4xx_usart.o
    0x0800699e   0x00000018   Code   RO         2433    i.USART_Cmd         stm32f4xx_usart.o
    0x080069b6   0x00000054   Code   RO         2437    i.USART_GetITStatus  stm32f4xx_usart.o
    0x08006a0a   0x0000004a   Code   RO         2439    i.USART_ITConfig    stm32f4xx_usart.o
    0x08006a54   0x000000d4   Code   RO         2440    i.USART_Init        stm32f4xx_usart.o
    0x08006b28   0x0000000a   Code   RO         2447    i.USART_ReceiveData  stm32f4xx_usart.o
    0x08006b32   0x00000026   Code   RO         4653    i.USBH_Alloc_Channel  usbh_hcs.o
    0x08006b58   0x00000060   Code   RO         4698    i.USBH_BulkReceiveData  usbh_ioreq.o
    0x08006bb8   0x0000005e   Code   RO         4699    i.USBH_BulkSendData  usbh_ioreq.o
    0x08006c16   0x0000004c   Code   RO         4761    i.USBH_ClrFeature   usbh_stdreq.o
    0x08006c62   0x00000014   Code   RO         4587    i.USBH_Connect      usbh_core.o
    0x08006c76   0x00000046   Code   RO         4700    i.USBH_CtlReceiveData  usbh_ioreq.o
    0x08006cbc   0x00000070   Code   RO         4701    i.USBH_CtlReq       usbh_ioreq.o
    0x08006d2c   0x0000006e   Code   RO         4702    i.USBH_CtlSendData  usbh_ioreq.o
    0x08006d9a   0x00000042   Code   RO         4703    i.USBH_CtlSendSetup  usbh_ioreq.o
    0x08006ddc   0x0000001c   Code   RO         4654    i.USBH_DeAllocate_AllChannel  usbh_hcs.o
    0x08006df8   0x0000003a   Code   RO         4588    i.USBH_DeInit       usbh_core.o
    0x08006e32   0x00000014   Code   RO         4589    i.USBH_Disconnect   usbh_core.o
    0x08006e46   0x0000002e   Code   RO         4590    i.USBH_ErrorHandle  usbh_core.o
    0x08006e74   0x0000001e   Code   RO         4655    i.USBH_Free_Channel  usbh_hcs.o
    0x08006e92   0x00000044   Code   RO         4762    i.USBH_GetDescriptor  usbh_stdreq.o
    0x08006ed6   0x00000028   Code   RO         4656    i.USBH_GetFreeChannel  usbh_hcs.o
    0x08006efe   0x00000012   Code   RO         4763    i.USBH_GetNextDesc  usbh_stdreq.o
    0x08006f10   0x00000040   Code   RO         4764    i.USBH_Get_CfgDesc  usbh_stdreq.o
    0x08006f50   0x00000038   Code   RO         4765    i.USBH_Get_DevDesc  usbh_stdreq.o
    0x08006f88   0x0000003c   Code   RO         4766    i.USBH_Get_StringDesc  usbh_stdreq.o
    0x08006fc4   0x00000228   Code   RO         4591    i.USBH_HandleControl  usbh_core.o
    0x080071ec   0x000001d8   Code   RO         4592    i.USBH_HandleEnum   usbh_core.o
    0x080073c4   0x0000005c   Code   RO         4593    i.USBH_Init         usbh_core.o
    0x08007420   0x00000024   Code   RO         4888    i.USBH_MSC_BOTReset  usbh_msc_core.o
    0x08007444   0x00000060   Code   RO         4843    i.USBH_MSC_BOT_Abort  usbh_msc_bot.o
    0x080074a4   0x00000014   Code   RO         4889    i.USBH_MSC_ClassRequest  usbh_msc_core.o
    0x080074b8   0x00000080   Code   RO         4844    i.USBH_MSC_DecodeCSW  usbh_msc_bot.o
    0x08007538   0x00000044   Code   RO         4890    i.USBH_MSC_ErrorHandle  usbh_msc_core.o
    0x0800757c   0x0000002c   Code   RO         4891    i.USBH_MSC_GETMaxLUN  usbh_msc_core.o
    0x080075a8   0x000001a8   Code   RO         4892    i.USBH_MSC_Handle   usbh_msc_core.o
    0x08007750   0x000002fc   Code   RO         4845    i.USBH_MSC_HandleBOTXfer  usbh_msc_bot.o
    0x08007a4c   0x00000044   Code   RO         4846    i.USBH_MSC_Init     usbh_msc_bot.o
    0x08007a90   0x0000004c   Code   RO         4893    i.USBH_MSC_InterfaceDeInit  usbh_msc_core.o
    0x08007adc   0x000000d0   Code   RO         4894    i.USBH_MSC_InterfaceInit  usbh_msc_core.o
    0x08007bac   0x000000d0   Code   RO         4941    i.USBH_MSC_ModeSense6  usbh_msc_scsi.o
    0x08007c7c   0x00000100   Code   RO         4942    i.USBH_MSC_Read10   usbh_msc_scsi.o
    0x08007d7c   0x000000dc   Code   RO         4943    i.USBH_MSC_ReadCapacity10  usbh_msc_scsi.o
    0x08007e58   0x000000e0   Code   RO         4944    i.USBH_MSC_RequestSense  usbh_msc_scsi.o
    0x08007f38   0x000000b0   Code   RO         4945    i.USBH_MSC_TestUnitReady  usbh_msc_scsi.o
    0x08007fe8   0x000000e4   Code   RO         4946    i.USBH_MSC_Write10  usbh_msc_scsi.o
    0x080080cc   0x00000064   Code   RO         4657    i.USBH_Modify_Channel  usbh_hcs.o
    0x08008130   0x000000a8   Code   RO         4521    i.USBH_OTG_ISR_Handler  usb_hcd_int.o
    0x080081d8   0x0000009a   Code   RO         4658    i.USBH_Open_Channel  usbh_hcs.o
    0x08008272   0x000000da   Code   RO         4767    i.USBH_ParseCfgDesc  usbh_stdreq.o
    0x0800834c   0x00000058   Code   RO         4768    i.USBH_ParseDevDesc  usbh_stdreq.o
    0x080083a4   0x00000020   Code   RO         4769    i.USBH_ParseEPDesc  usbh_stdreq.o
    0x080083c4   0x00000026   Code   RO         4770    i.USBH_ParseInterfaceDesc  usbh_stdreq.o
    0x080083ea   0x00000036   Code   RO         4771    i.USBH_ParseStringDesc  usbh_stdreq.o
    0x08008420   0x000001ae   Code   RO         4594    i.USBH_Process      usbh_core.o
    0x080085ce   0x00000026   Code   RO         4772    i.USBH_SetAddress   usbh_stdreq.o
    0x080085f4   0x00000026   Code   RO         4773    i.USBH_SetCfg       usbh_stdreq.o
    0x0800861a   0x00000018   Code   RO         4706    i.USBH_SubmitSetupRequest  usbh_ioreq.o
    0x08008632   0x00000002   Code   RO          558    i.USBH_USR_Configuration_DescAvailable  usbh_usr.o
    0x08008634   0x0000000c   Code   RO          559    i.USBH_USR_DeInit   usbh_usr.o
    0x08008640   0x00000002   Code   RO          560    i.USBH_USR_DeviceAddressAssigned  usbh_usr.o
    0x08008642   0x00000002   PAD
    0x08008644   0x00000028   Code   RO          561    i.USBH_USR_DeviceAttached  usbh_usr.o
    0x0800866c   0x00000054   Code   RO          562    i.USBH_USR_DeviceDisconnected  usbh_usr.o
    0x080086c0   0x00000002   Code   RO          563    i.USBH_USR_DeviceNotSupported  usbh_usr.o
    0x080086c2   0x00000002   Code   RO          564    i.USBH_USR_DeviceSpeedDetected  usbh_usr.o
    0x080086c4   0x00000002   Code   RO          565    i.USBH_USR_Device_DescAvailable  usbh_usr.o
    0x080086c6   0x00000010   Code   RO          566    i.USBH_USR_EnumerationDone  usbh_usr.o
    0x080086d6   0x00000002   Code   RO          567    i.USBH_USR_Init     usbh_usr.o
    0x080086d8   0x00000074   Code   RO          568    i.USBH_USR_MSC_Application  usbh_usr.o
    0x0800874c   0x00000002   Code   RO          569    i.USBH_USR_Manufacturer_String  usbh_usr.o
    0x0800874e   0x00000002   Code   RO          570    i.USBH_USR_OverCurrentDetected  usbh_usr.o
    0x08008750   0x00000002   Code   RO          571    i.USBH_USR_Product_String  usbh_usr.o
    0x08008752   0x00000002   Code   RO          572    i.USBH_USR_ResetDevice  usbh_usr.o
    0x08008754   0x00000002   Code   RO          573    i.USBH_USR_SerialNum_String  usbh_usr.o
    0x08008756   0x00000002   Code   RO          574    i.USBH_USR_UnrecoveredError  usbh_usr.o
    0x08008758   0x00000004   Code   RO          575    i.USBH_USR_UserInput  usbh_usr.o
    0x0800875c   0x00000044   Code   RO          489    i.USB_OTG_BSP_ConfigVBUS  usb_bsp.o
    0x080087a0   0x00000020   Code   RO          490    i.USB_OTG_BSP_DriveVBUS  usb_bsp.o
    0x080087c0   0x00000046   Code   RO          491    i.USB_OTG_BSP_EnableInterrupt  usb_bsp.o
    0x08008806   0x00000002   PAD
    0x08008808   0x00000090   Code   RO          492    i.USB_OTG_BSP_Init  usb_bsp.o
    0x08008898   0x0000003a   Code   RO          493    i.USB_OTG_BSP_TimeInit  usb_bsp.o
    0x080088d2   0x00000002   PAD
    0x080088d4   0x00000038   Code   RO          494    i.USB_OTG_BSP_TimerIRQ  usb_bsp.o
    0x0800890c   0x0000000e   Code   RO          495    i.USB_OTG_BSP_mDelay  usb_bsp.o
    0x0800891a   0x0000000e   Code   RO          496    i.USB_OTG_BSP_uDelay  usb_bsp.o
    0x08008928   0x000001ce   Code   RO         4269    i.USB_OTG_CoreInit  usb_core.o
    0x08008af6   0x000000c2   Code   RO         4270    i.USB_OTG_CoreInitHost  usb_core.o
    0x08008bb8   0x00000070   Code   RO         4271    i.USB_OTG_CoreReset  usb_core.o
    0x08008c28   0x00000022   Code   RO         4272    i.USB_OTG_DisableGlobalInt  usb_core.o
    0x08008c4a   0x0000005c   Code   RO         4273    i.USB_OTG_DriveVbus  usb_core.o
    0x08008ca6   0x00000030   Code   RO         4274    i.USB_OTG_EnableCommonInt  usb_core.o
    0x08008cd6   0x00000022   Code   RO         4275    i.USB_OTG_EnableGlobalInt  usb_core.o
    0x08008cf8   0x00000074   Code   RO         4276    i.USB_OTG_EnableHostInt  usb_core.o
    0x08008d6c   0x0000004c   Code   RO         4277    i.USB_OTG_FlushRxFifo  usb_core.o
    0x08008db8   0x00000054   Code   RO         4278    i.USB_OTG_FlushTxFifo  usb_core.o
    0x08008e0c   0x0000000c   Code   RO         4279    i.USB_OTG_GetMode   usb_core.o
    0x08008e18   0x0000005a   Code   RO         4280    i.USB_OTG_HC_DoPing  usb_core.o
    0x08008e72   0x0000007e   Code   RO         4281    i.USB_OTG_HC_Halt   usb_core.o
    0x08008ef0   0x00000238   Code   RO         4282    i.USB_OTG_HC_Init   usb_core.o
    0x08009128   0x000001f6   Code   RO         4283    i.USB_OTG_HC_StartXfer  usb_core.o
    0x0800931e   0x00000018   Code   RO         4284    i.USB_OTG_InitFSLSPClkSel  usb_core.o
    0x08009336   0x00000010   Code   RO         4286    i.USB_OTG_IsEvenFrame  usb_core.o
    0x08009346   0x00000014   Code   RO         4287    i.USB_OTG_IsHostMode  usb_core.o
    0x0800935a   0x00000010   Code   RO         4288    i.USB_OTG_ReadCoreItr  usb_core.o
    0x0800936a   0x00000030   Code   RO         4289    i.USB_OTG_ReadHPRT0  usb_core.o
    0x0800939a   0x00000008   Code   RO         4290    i.USB_OTG_ReadHostAllChannels_intr  usb_core.o
    0x080093a2   0x00000028   Code   RO         4292    i.USB_OTG_ReadPacket  usb_core.o
    0x080093ca   0x00000040   Code   RO         4293    i.USB_OTG_ResetPort  usb_core.o
    0x0800940a   0x00000002   PAD
    0x0800940c   0x000000d0   Code   RO         4294    i.USB_OTG_SelectCore  usb_core.o
    0x080094dc   0x0000004e   Code   RO         4295    i.USB_OTG_SetCurrentMode  usb_core.o
    0x0800952a   0x0000002e   Code   RO         4522    i.USB_OTG_USBH_handle_Disconnect_ISR  usb_hcd_int.o
    0x08009558   0x00000046   Code   RO         4523    i.USB_OTG_USBH_handle_IncompletePeriodicXfer_ISR  usb_hcd_int.o
    0x0800959e   0x00000056   Code   RO         4524    i.USB_OTG_USBH_handle_hc_ISR  usb_hcd_int.o
    0x080095f4   0x00000428   Code   RO         4525    i.USB_OTG_USBH_handle_hc_n_In_ISR  usb_hcd_int.o
    0x08009a1c   0x00000388   Code   RO         4526    i.USB_OTG_USBH_handle_hc_n_Out_ISR  usb_hcd_int.o
    0x08009da4   0x0000012c   Code   RO         4527    i.USB_OTG_USBH_handle_nptxfempty_ISR  usb_hcd_int.o
    0x08009ed0   0x00000118   Code   RO         4528    i.USB_OTG_USBH_handle_port_ISR  usb_hcd_int.o
    0x08009fe8   0x0000012e   Code   RO         4529    i.USB_OTG_USBH_handle_ptxfempty_ISR  usb_hcd_int.o
    0x0800a116   0x00000164   Code   RO         4530    i.USB_OTG_USBH_handle_rx_qlvl_ISR  usb_hcd_int.o
    0x0800a27a   0x0000001c   Code   RO         4531    i.USB_OTG_USBH_handle_sof_ISR  usb_hcd_int.o
    0x0800a296   0x00000040   Code   RO         4297    i.USB_OTG_WritePacket  usb_core.o
    0x0800a2d6   0x00000002   PAD
    0x0800a2d8   0x000001c0   Code   RO         4070    i.UnpackSFMPEG1     scalfact.o
    0x0800a498   0x000002a4   Code   RO         4071    i.UnpackSFMPEG2     scalfact.o
    0x0800a73c   0x00000004   Code   RO          371    i.UsageFault_Handler  stm32f4xx_it.o
    0x0800a740   0x00000154   Code   RO         3954    i.WinPrevious       imdct.o
    0x0800a894   0x00000010   Code   RO         5791    i.__0printf$bare    mc_w.l(printfb.o)
    0x0800a8a4   0x0000000e   Code   RO         6121    i.__scatterload_copy  mc_w.l(handlers.o)
    0x0800a8b2   0x00000002   Code   RO         6122    i.__scatterload_null  mc_w.l(handlers.o)
    0x0800a8b4   0x0000000e   Code   RO         6123    i.__scatterload_zeroinit  mc_w.l(handlers.o)
    0x0800a8c2   0x00000084   Code   RO         3092    i._draw_circle_8    lcd.o
    0x0800a946   0x00000022   Code   RO         5798    i._printf_core      mc_w.l(printfb.o)
    0x0800a968   0x00000090   Code   RO         2632    i.check_fs          ff.o
    0x0800a9f8   0x00000014   Code   RO         2633    i.chk_chr           ff.o
    0x0800aa0c   0x00000318   Code   RO         2634    i.chk_mounted       ff.o
    0x0800ad24   0x0000001a   Code   RO         2635    i.clust2sect        ff.o
    0x0800ad3e   0x00000002   PAD
    0x0800ad40   0x00000090   Code   RO         2636    i.cmp_lfn           ff.o
    0x0800add0   0x000000b6   Code   RO         2637    i.create_chain      ff.o
    0x0800ae86   0x00000002   PAD
    0x0800ae88   0x00000268   Code   RO         2638    i.create_name       ff.o
    0x0800b0f0   0x00000054   Code   RO         3664    i.delay_init        delay.o
    0x0800b144   0x00000050   Code   RO         3665    i.delay_ms          delay.o
    0x0800b194   0x0000005c   Code   RO         3666    i.delay_us          delay.o
    0x0800b1f0   0x000000de   Code   RO         2639    i.dir_find          ff.o
    0x0800b2ce   0x00000142   Code   RO         2640    i.dir_next          ff.o
    0x0800b410   0x000000be   Code   RO         2641    i.dir_read          ff.o
    0x0800b4ce   0x0000018c   Code   RO         2642    i.dir_register      ff.o
    0x0800b65a   0x000000dc   Code   RO         2644    i.dir_seek          ff.o
    0x0800b736   0x00000002   PAD
    0x0800b738   0x00000054   Code   RO         2968    i.disk_initialize   diskio.o
    0x0800b78c   0x000000c0   Code   RO         2969    i.disk_ioctl        diskio.o
    0x0800b84c   0x000000bc   Code   RO         2970    i.disk_read         diskio.o
    0x0800b908   0x00000024   Code   RO         2971    i.disk_status       diskio.o
    0x0800b92c   0x000000b8   Code   RO         2972    i.disk_write        diskio.o
    0x0800b9e4   0x000001a0   Code   RO           11    i.display_files_list  main.o
    0x0800bb84   0x00000042   Code   RO           12    i.display_scrollbar  main.o
    0x0800bbc6   0x00000002   PAD
    0x0800bbc8   0x000000a4   Code   RO           13    i.display_time      main.o
    0x0800bc6c   0x00000164   Code   RO           14    i.display_ui_end    main.o
    0x0800bdd0   0x0000013c   Code   RO           15    i.display_ui_start  main.o
    0x0800bf0c   0x00000066   Code   RO         2929    i.exf_getfree       exfuns.o
    0x0800bf72   0x00000116   Code   RO         2647    i.f_getfree         ff.o
    0x0800c088   0x0000002c   Code   RO         2652    i.f_mount           ff.o
    0x0800c0b4   0x00000198   Code   RO         2653    i.f_open            ff.o
    0x0800c24c   0x00000070   Code   RO         2654    i.f_opendir         ff.o
    0x0800c2bc   0x000001fc   Code   RO         2658    i.f_read            ff.o
    0x0800c4b8   0x00000064   Code   RO         2659    i.f_readdir         ff.o
    0x0800c51c   0x0000000a   Code   RO         3011    i.ff_convert        mycc936.o
    0x0800c526   0x00000002   PAD
    0x0800c528   0x00000038   Code   RO         3012    i.ff_wtoupper       mycc936.o
    0x0800c560   0x00000080   Code   RO         2667    i.fit_lfn           ff.o
    0x0800c5e0   0x0000009a   Code   RO         2668    i.follow_path       ff.o
    0x0800c67a   0x00000002   PAD
    0x0800c67c   0x0000001c   Code   RO         3717    i.fputc             usart.o
    0x0800c698   0x00000050   Code   RO         6050    i.free              mc_w.l(malloc.o)
    0x0800c6e8   0x000000a6   Code   RO         2669    i.gen_numname       ff.o
    0x0800c78e   0x00000002   PAD
    0x0800c790   0x000000b0   Code   RO         3330    i.get_TF_free       sd.o
    0x0800c840   0x000000b0   Code   RO         3331    i.get_USB_free      sd.o
    0x0800c8f0   0x00000156   Code   RO         2670    i.get_fat           ff.o
    0x0800ca46   0x00000004   Code   RO         2613    i.get_fattime       fattime.o
    0x0800ca4a   0x00000002   PAD
    0x0800ca4c   0x0000000c   Code   RO         4163    i.get_file_curindex  mp3play.o
    0x0800ca58   0x00000138   Code   RO         2671    i.get_fileinfo      ff.o
    0x0800cb90   0x0000009a   Code   RO         3093    i.gui_circle        lcd.o
    0x0800cc2a   0x00000002   PAD
    0x0800cc2c   0x000001dc   Code   RO         3955    i.idct9             imdct.o
    0x0800ce08   0x000000f4   Code   RO         3956    i.imdct12           imdct.o
    0x0800cefc   0x00000210   Code   RO          697    i.key_test          producttest.o
    0x0800d10c   0x00000348   Code   RO          698    i.lcd_test          producttest.o
    0x0800d454   0x00000048   Code   RO           16    i.led_task          main.o
    0x0800d49c   0x00000334   Code   RO          699    i.led_test          producttest.o
    0x0800d7d0   0x000000d4   Code   RO           17    i.list_ctrl         main.o
    0x0800d8a4   0x00000158   Code   RO           18    i.main              main.o
    0x0800d9fc   0x0000006c   Code   RO         6051    i.malloc            mc_w.l(malloc.o)
    0x0800da68   0x00000026   Code   RO         2672    i.mem_cmp           ff.o
    0x0800da8e   0x0000001a   Code   RO         2673    i.mem_cpy           ff.o
    0x0800daa8   0x00000014   Code   RO         2674    i.mem_set           ff.o
    0x0800dabc   0x00000072   Code   RO         2675    i.move_window       ff.o
    0x0800db2e   0x00000002   PAD
    0x0800db30   0x00000130   Code   RO         4165    i.music_ctrl        mp3play.o
    0x0800dc60   0x00000016   Code   RO         3094    i.mypow             lcd.o
    0x0800dc76   0x00000002   PAD
    0x0800dc78   0x00000074   Code   RO         2676    i.pick_lfn          ff.o
    0x0800dcec   0x0000018e   Code   RO         2677    i.put_fat           ff.o
    0x0800de7a   0x00000068   Code   RO         2678    i.remove_chain      ff.o
    0x0800dee2   0x00000002   PAD
    0x0800dee4   0x00000038   Code   RO           19    i.reset_time        main.o
    0x0800df1c   0x00000078   Code   RO           20    i.start_task        main.o
    0x0800df94   0x00000020   Code   RO         2679    i.sum_sfn           ff.o
    0x0800dfb4   0x00000030   Code   RO           21    i.test_task         main.o
    0x0800dfe4   0x0000008c   Code   RO           22    i.tf_task           main.o
    0x0800e070   0x000000b4   Code   RO         3718    i.uart_init         usart.o
    0x0800e124   0x000000e8   Code   RO           23    i.ui_task           main.o
    0x0800e20c   0x000001c8   Code   RO         3719    i.usart_ctrl_music  usart.o
    0x0800e3d4   0x000001cc   Code   RO          700    i.usart_test        producttest.o
    0x0800e5a0   0x0000003c   Code   RO           24    i.usb_task          main.o
    0x0800e5dc   0x0000002a   Code   RO         2681    i.validate          ff.o
    0x0800e606   0x00000002   PAD
    0x0800e608   0x00000094   Code   RO         3830    i.xmp3_AllocateBuffers  buffers.o
    0x0800e69c   0x00000012   Code   RO         3766    i.xmp3_CalcBitsUsed  bitstream.o
    0x0800e6ae   0x0000001c   Code   RO         3767    i.xmp3_CheckPadBit  bitstream.o
    0x0800e6ca   0x0000021a   Code   RO         3916    i.xmp3_DecodeHuffman  huffman.o
    0x0800e8e4   0x00000278   Code   RO         3892    i.xmp3_DequantChannel  dqchan.o
    0x0800eb5c   0x00000284   Code   RO         3871    i.xmp3_Dequantize   dequant.o
    0x0800ede0   0x00000d2c   Code   RO         3856    i.xmp3_FDCT32       dct32.o
    0x0800fb0c   0x00000050   Code   RO         3768    i.xmp3_GetBits      bitstream.o
    0x0800fb5c   0x000001fa   Code   RO         3957    i.xmp3_IMDCT        imdct.o
    0x0800fd56   0x00000002   PAD
    0x0800fd58   0x000002f0   Code   RO         4094    i.xmp3_IntensityProcMPEG1  stproc.o
    0x08010048   0x000002cc   Code   RO         4095    i.xmp3_IntensityProcMPEG2  stproc.o
    0x08010314   0x0000006a   Code   RO         4096    i.xmp3_MidSideProc  stproc.o
    0x0801037e   0x0000000c   Code   RO         3769    i.xmp3_SetBitstreamPointer  bitstream.o
    0x0801038a   0x00000002   PAD
    0x0801038c   0x00000114   Code   RO         4118    i.xmp3_Subband      subband.o
    0x080104a0   0x000001f4   Code   RO         3770    i.xmp3_UnpackFrameHeader  bitstream.o
    0x08010694   0x00000128   Code   RO         4072    i.xmp3_UnpackScaleFactors  scalfact.o
    0x080107bc   0x0000022c   Code   RO         3771    i.xmp3_UnpackSideInfo  bitstream.o
    0x080109e8   0x00001200   Data   RO           26    .constdata          main.o
    0x08011be8   0x0000000a   Data   RO          701    .constdata          producttest.o
    0x08011bf2   0x00000002   PAD
    0x08011bf4   0x00000052   Data   RO         2682    .constdata          ff.o
    0x08011c46   0x000003c0   Data   RO         3013    .constdata          mycc936.o
    0x08012006   0x0002064c   Data   RO         3096    .constdata          lcd.o
    0x08032652   0x00000002   PAD
    0x08032654   0x000000c0   Data   RO         3857    .constdata          dct32.o
    0x08032714   0x00000250   Data   RO         3893    .constdata          dqchan.o
    0x08032964   0x00002304   Data   RO         3936    .constdata          hufftabs.o
    0x08034c68   0x00000078   Data   RO         3958    .constdata          imdct.o
    0x08034ce0   0x000004fe   Data   RO         4058    .constdata          mp3tabs.o
    0x080351de   0x00000068   Data   RO         4073    .constdata          scalfact.o
    0x08035246   0x00000002   PAD
    0x08035248   0x0000086c   Data   RO         4130    .constdata          trigtabs.o
    0x08035ab4   0x00000100   Data   RO         5024    .constdata          os_core.o
    0x08035bb4   0x00000040   Data   RO         6119    Region$$Table       anon$$obj.o


    Execution Region RW_IRAM2 (Base: 0x10000000, Size: 0x00000614, Max: 0x00010000, ABSOLUTE)

    Base Addr    Size         Type   Attr      Idx    E Section Name        Object

    0x10000000   0x00000006   Data   RW           27    .data               main.o
    0x10000006   0x00000002   PAD
    0x10000008   0x00000014   Data   RW          457    .data               system_stm32f4xx.o
    0x1000001c   0x0000004f   Data   RW          577    .data               usbh_usr.o
    0x1000006b   0x00000001   Data   RW          702    .data               producttest.o
    0x1000006c   0x0000000a   Data   RW         2683    .data               ff.o
    0x10000076   0x00000001   Data   RW         3036    .data               key.o
    0x10000077   0x00000001   PAD
    0x10000078   0x00000006   Data   RW         3097    .data               lcd.o
    0x1000007e   0x00000002   PAD
    0x10000080   0x0000000c   Data   RW         3332    .data               sd.o
    0x1000008c   0x00000040   Data   RW         3494    .data               codec.o
    0x100000cc   0x00000004   Data   RW         3667    .data               delay.o
    0x100000d0   0x0000000e   Data   RW         4595    .data               usbh_core.o
    0x100000de   0x00000002   PAD
    0x100000e0   0x0000001d   Data   RW         4896    .data               usbh_msc_core.o
    0x100000fd   0x00000003   PAD
    0x10000100   0x00000004   Data   RW         6096    .data               mc_w.l(mvars.o)
    0x10000104   0x00000078   Zero   RW         3493    .bss                codec.o
    0x1000017c   0x0000003c   Zero   RW         3720    .bss                usart.o
    0x100001b8   0x0000004a   Zero   RW         4895    .bss                usbh_msc_core.o
    0x10000202   0x00000002   PAD
    0x10000204   0x00000410   Zero   RW         4947    .bss                usbh_msc_scsi.o


    Execution Region RW_IRAM1 (Base: 0x20000000, Size: 0x00010618, Max: 0x00020000, ABSOLUTE)

    Base Addr    Size         Type   Attr      Idx    E Section Name        Object

    0x20000000   0x0000000a   Data   RW          372    .data               stm32f4xx_it.o
    0x2000000a   0x00000002   PAD
    0x2000000c   0x00000008   Data   RW          497    .data               usb_bsp.o
    0x20000014   0x00000010   Data   RW         1433    .data               stm32f4xx_rcc.o
    0x20000024   0x00000001   Data   RW         2973    .data               diskio.o
    0x20000025   0x00000003   PAD
    0x20000028   0x00000006   Data   RW         3721    .data               usart.o
    0x2000002e   0x00000002   PAD
    0x20000030   0x00000038   Data   RW         4167    .data               mp3play.o
    0x20000068   0x0000000d   Data   RW         4848    .data               usbh_msc_bot.o
    0x20000075   0x00000001   Data   RW         4948    .data               usbh_msc_scsi.o
    0x20000076   0x00000002   PAD
    0x20000078   0x00000048   Data   RW         5025    .data               os_core.o
    0x200000c0   0x00000004   Data   RW         5764    .data               mc_w.l(rand.o)
    0x200000c4   0x00000004   Data   RW         6097    .data               mc_w.l(mvars.o)
    0x200000c8   0x00003788   Zero   RW           25    .bss                main.o
    0x20003850   0x000018bc   Zero   RW          576    .bss                usbh_usr.o
    0x2000510c   0x00000868   Zero   RW         2930    .bss                exfuns.o
    0x20005974   0x0000000e   Zero   RW         3095    .bss                lcd.o
    0x20005982   0x00000002   PAD
    0x20005984   0x00005d08   Zero   RW         3832    .bss                buffers.o
    0x2000b68c   0x000033c8   Zero   RW         4166    .bss                mp3play.o
    0x2000ea54   0x00000040   Zero   RW         4847    .bss                usbh_msc_bot.o
    0x2000ea94   0x00000a80   Zero   RW         5023    .bss                os_core.o
    0x2000f514   0x00000004   PAD
    0x2000f518   0x00000100   Zero   RW            2    HEAP                startup_stm32f4xx.o
    0x2000f618   0x00001000   Zero   RW            1    STACK               startup_stm32f4xx.o


==============================================================================

Image component sizes


      Code (inc. data)   RO Data    RW Data    ZI Data      Debug   Object Name

         8          0          0          0          0        244   asmmisc.o
      2062          0          0          0          0        604   asmpoly_thumb2.o
      1330         24          0          0          0      12735   bitstream.o
       170         32          0          0      23816       1917   buffers.o
      3048        314          0         64        120      17083   codec.o
      3372         10        192          0          0       4426   dct32.o
       272         26          0          4          0       2425   delay.o
       672          4          0          0          0       2170   dequant.o
       684         54          0          1          0       4434   diskio.o
      1096         38        592          0          0       4246   dqchan.o
       102          0          0          0       2152       1703   exfuns.o
         4          0          0          0          0        466   fattime.o
      6716         64         82         10          0      30433   ff.o
      1826         26          0          0          0       6213   huffman.o
         0          0       8964          0          0       5624   hufftabs.o
      4134         56        120          0          0      11965   imdct.o
       440         32          0          1          0       1998   key.o
      4010        210     132684          6         14      24374   lcd.o
        56          6          0          0          0        511   led.o
      2602        546       4608          6      14216     351805   main.o
       200         32          0          0          0       2871   misc.o
      1062          6          0          0          0       5269   mp3dec.o
      1444        176          0         56      13256       8591   mp3play.o
         0          0       1278          0          0       1917   mp3tabs.o
        66         10        960          0          0       1499   mycc936.o
      2058        396        256         72       2688      20912   os_core.o
       200         32          0          0          0        316   os_cpu_a.o
       176          4          0          0          0      13830   os_cpu_c.o
       124         14          0          0          0       8662   os_flag.o
        80          8          0          0          0        579   os_q.o
      1154        116          0          0          0       6708   os_task.o
       120         20          0          0          0        636   os_time.o
      2900        422         10          1          0       3815   producttest.o
      1420          8        104          0          0       4382   scalfact.o
      1950        168          0         12          0      13283   sd.o
        36          8        392          0       4352        840   startup_stm32f4xx.o
       124         18          0          0          0       2635   stm32f4xx_dac.o
       652         54          0          0          0       6040   stm32f4xx_dma.o
        52         12          0          0          0       1240   stm32f4xx_exti.o
       232          0          0          0          0       3743   stm32f4xx_gpio.o
       564         28          0          0          0       8373   stm32f4xx_i2c.o
       192         30          0         10          0       6546   stm32f4xx_it.o
       424         54          0         16          0       6514   stm32f4xx_rcc.o
       634         22          0          0          0       7344   stm32f4xx_spi.o
       248         28          0          0          0       5749   stm32f4xx_tim.o
       422          8          0          0          0       5116   stm32f4xx_usart.o
      1574         18          0          0          0       4663   stproc.o
       276          4          0          0          0       1147   subband.o
       384         40          0         20          0       1781   system_stm32f4xx.o
         0          0       2156          0          0        936   trigtabs.o
       848        164          0          6         60       4389   usart.o
       606         26          0          8          0       6396   usb_bsp.o
      3136         18          0          0          0      19171   usb_core.o
       202          0          0          0          0       5291   usb_hcd.o
      3604          0          0          0          0      10471   usb_hcd_int.o
      1690         52          0         14          0      14753   usbh_core.o
       390          0          0          0          0       4636   usbh_hcs.o
       572          0          0          0          0       5594   usbh_ioreq.o
      1056         98          0         13         64       6813   usbh_msc_bot.o
       876         62          0         29         74       6725   usbh_msc_core.o
      1312         88          0          1       1040       7404   usbh_msc_scsi.o
       848          0          0          0          0       9991   usbh_stdreq.o
       364         92          0         79       6332      14284   usbh_usr.o

    ----------------------------------------------------------------------
     66956       3778     152468        448      68192     757231   Object Totals
         0          0         64          0          0          0   (incl. Generated)
        80          0          6         19          8          0   (incl. Padding)

    ----------------------------------------------------------------------

      Code (inc. data)   RO Data    RW Data    ZI Data      Debug   Library Member Name

        86          0          0          0          0          0   __dczerorl2.o
         0          0          0          0          0          0   entry.o
         0          0          0          0          0          0   entry10a.o
         0          0          0          0          0          0   entry11a.o
         8          4          0          0          0          0   entry2.o
         4          0          0          0          0          0   entry5.o
         0          0          0          0          0          0   entry7b.o
         0          0          0          0          0          0   entry8b.o
         8          4          0          0          0          0   entry9a.o
        30          0          0          0          0          0   handlers.o
        36          8          0          0          0         68   init.o
       188         20          0          0          0        160   malloc.o
        64          0          0          0          0         76   memmovea.o
        36          0          0          0          0        108   memseta.o
         0          0          0          8          0          0   mvars.o
        50          8          0          0          0        152   printfb.o
        36         10          0          4          0        136   rand.o
        24          0          0          0          0         68   strcat.o
        28          0          0          0          0         76   strcmp.o
        18          0          0          0          0         68   strcpy.o
        14          0          0          0          0         68   strlen.o
        30          0          0          0          0         80   strncmp.o
        24          0          0          0          0         76   strncpy.o
        36          0          0          0          0         80   strstr.o

    ----------------------------------------------------------------------
       724         54          0         12          0       1216   Library Totals
         4          0          0          0          0          0   (incl. Padding)

    ----------------------------------------------------------------------

      Code (inc. data)   RO Data    RW Data    ZI Data      Debug   Library Name

       720         54          0         12          0       1216   mc_w.l

    ----------------------------------------------------------------------
       724         54          0         12          0       1216   Library Totals

    ----------------------------------------------------------------------

==============================================================================


      Code (inc. data)   RO Data    RW Data    ZI Data      Debug   

     67680       3832     152468        460      68192     713859   Grand Totals
     67680       3832     152468        460      68192     713859   ELF Image Totals
     67680       3832     152468        460          0          0   ROM Totals

==============================================================================

    Total RO  Size (Code + RO Data)               220148 ( 214.99kB)
    Total RW  Size (RW Data + ZI Data)             68652 (  67.04kB)
    Total ROM Size (Code + RO Data + RW Data)     220608 ( 215.44kB)

==============================================================================

